
target/kernel:     file format elf64-littleriscv


Disassembly of section .text:

0000000080200000 <_entry>:
    80200000:	00150293          	addi	t0,a0,1
    80200004:	02ba                	slli	t0,t0,0xe
    80200006:	0000a117          	auipc	sp,0xa
    8020000a:	28213103          	ld	sp,642(sp) # 8020a288 <_GLOBAL_OFFSET_TABLE_+0x50>
    8020000e:	9116                	add	sp,sp,t0
    80200010:	223000ef          	jal	ra,80200a32 <main>

0000000080200014 <loop>:
    80200014:	a001                	j	80200014 <loop>

0000000080200016 <printint>:
    }
}

static void
printint(int xx, int base, int sign)
{
    80200016:	7179                	addi	sp,sp,-48
    80200018:	f406                	sd	ra,40(sp)
    8020001a:	f022                	sd	s0,32(sp)
    8020001c:	ec26                	sd	s1,24(sp)
    8020001e:	e84a                	sd	s2,16(sp)
    80200020:	1800                	addi	s0,sp,48
  char buf[16];
  int i;
  uint x;

  if(sign && (sign = xx < 0))
    80200022:	c219                	beqz	a2,80200028 <printint+0x12>
    80200024:	00054e63          	bltz	a0,80200040 <printint+0x2a>
    x = -xx;
  else
    x = xx;
    80200028:	2501                	sext.w	a0,a0
    8020002a:	4881                	li	a7,0

  i = 0;
    8020002c:	fd040913          	addi	s2,s0,-48
    x = xx;
    80200030:	874a                	mv	a4,s2
  i = 0;
    80200032:	4601                	li	a2,0
  do {
    buf[i++] = digits[x % base];
    80200034:	2581                	sext.w	a1,a1
    80200036:	00009817          	auipc	a6,0x9
    8020003a:	fca80813          	addi	a6,a6,-54 # 80209000 <etext>
    8020003e:	a801                	j	8020004e <printint+0x38>
    x = -xx;
    80200040:	40a0053b          	negw	a0,a0
    80200044:	2501                	sext.w	a0,a0
  if(sign && (sign = xx < 0))
    80200046:	4885                	li	a7,1
    x = -xx;
    80200048:	b7d5                	j	8020002c <printint+0x16>
  } while((x /= base) != 0);
    8020004a:	853e                	mv	a0,a5
    buf[i++] = digits[x % base];
    8020004c:	8636                	mv	a2,a3
    8020004e:	0016069b          	addiw	a3,a2,1
    80200052:	02b577bb          	remuw	a5,a0,a1
    80200056:	1782                	slli	a5,a5,0x20
    80200058:	9381                	srli	a5,a5,0x20
    8020005a:	97c2                	add	a5,a5,a6
    8020005c:	0007c783          	lbu	a5,0(a5)
    80200060:	00f70023          	sb	a5,0(a4)
  } while((x /= base) != 0);
    80200064:	0705                	addi	a4,a4,1
    80200066:	02b557bb          	divuw	a5,a0,a1
    8020006a:	feb570e3          	bleu	a1,a0,8020004a <printint+0x34>

  if(sign)
    8020006e:	00088b63          	beqz	a7,80200084 <printint+0x6e>
    buf[i++] = '-';
    80200072:	fe040793          	addi	a5,s0,-32
    80200076:	96be                	add	a3,a3,a5
    80200078:	02d00793          	li	a5,45
    8020007c:	fef68823          	sb	a5,-16(a3)
    80200080:	0026069b          	addiw	a3,a2,2

  while(--i >= 0)
    80200084:	02d05563          	blez	a3,802000ae <printint+0x98>
    80200088:	fd040493          	addi	s1,s0,-48
    8020008c:	94b6                	add	s1,s1,a3
    8020008e:	197d                	addi	s2,s2,-1
    80200090:	9936                	add	s2,s2,a3
    80200092:	36fd                	addiw	a3,a3,-1
    80200094:	1682                	slli	a3,a3,0x20
    80200096:	9281                	srli	a3,a3,0x20
    80200098:	40d90933          	sub	s2,s2,a3
    consputc(buf[i]);
    8020009c:	fff4c503          	lbu	a0,-1(s1)
    802000a0:	00007097          	auipc	ra,0x7
    802000a4:	d5c080e7          	jalr	-676(ra) # 80206dfc <consputc>
  while(--i >= 0)
    802000a8:	14fd                	addi	s1,s1,-1
    802000aa:	ff2499e3          	bne	s1,s2,8020009c <printint+0x86>
}
    802000ae:	70a2                	ld	ra,40(sp)
    802000b0:	7402                	ld	s0,32(sp)
    802000b2:	64e2                	ld	s1,24(sp)
    802000b4:	6942                	ld	s2,16(sp)
    802000b6:	6145                	addi	sp,sp,48
    802000b8:	8082                	ret

00000000802000ba <printstring>:
void printstring(const char* s) {
    802000ba:	1101                	addi	sp,sp,-32
    802000bc:	ec06                	sd	ra,24(sp)
    802000be:	e822                	sd	s0,16(sp)
    802000c0:	e426                	sd	s1,8(sp)
    802000c2:	1000                	addi	s0,sp,32
    802000c4:	84aa                	mv	s1,a0
    while (*s)
    802000c6:	00054503          	lbu	a0,0(a0)
    802000ca:	c909                	beqz	a0,802000dc <printstring+0x22>
        consputc(*s++);
    802000cc:	0485                	addi	s1,s1,1
    802000ce:	00007097          	auipc	ra,0x7
    802000d2:	d2e080e7          	jalr	-722(ra) # 80206dfc <consputc>
    while (*s)
    802000d6:	0004c503          	lbu	a0,0(s1)
    802000da:	f96d                	bnez	a0,802000cc <printstring+0x12>
}
    802000dc:	60e2                	ld	ra,24(sp)
    802000de:	6442                	ld	s0,16(sp)
    802000e0:	64a2                	ld	s1,8(sp)
    802000e2:	6105                	addi	sp,sp,32
    802000e4:	8082                	ret

00000000802000e6 <backtrace>:
  for(;;)
    ;
}

void backtrace()
{
    802000e6:	7179                	addi	sp,sp,-48
    802000e8:	f406                	sd	ra,40(sp)
    802000ea:	f022                	sd	s0,32(sp)
    802000ec:	ec26                	sd	s1,24(sp)
    802000ee:	e84a                	sd	s2,16(sp)
    802000f0:	e44e                	sd	s3,8(sp)
    802000f2:	1800                	addi	s0,sp,48

static inline uint64
r_fp()
{
  uint64 x;
  asm volatile("mv %0, s0" : "=r" (x) );
    802000f4:	8922                	mv	s2,s0
  uint64 *fp = (uint64 *)r_fp();
    802000f6:	84ca                	mv	s1,s2
  uint64 *bottom = (uint64 *)PGROUNDUP((uint64)fp);
    802000f8:	6785                	lui	a5,0x1
    802000fa:	17fd                	addi	a5,a5,-1
    802000fc:	993e                	add	s2,s2,a5
    802000fe:	77fd                	lui	a5,0xfffff
    80200100:	00f97933          	and	s2,s2,a5
  printf("backtrace:\n");
    80200104:	00009517          	auipc	a0,0x9
    80200108:	f1450513          	addi	a0,a0,-236 # 80209018 <etext+0x18>
    8020010c:	00000097          	auipc	ra,0x0
    80200110:	084080e7          	jalr	132(ra) # 80200190 <printf>
  while (fp < bottom) {
    80200114:	0324f263          	bleu	s2,s1,80200138 <backtrace+0x52>
    uint64 ra = *(fp - 1);
    printf("%p\n", ra - 4);
    80200118:	00009997          	auipc	s3,0x9
    8020011c:	4d098993          	addi	s3,s3,1232 # 802095e8 <etext+0x5e8>
    80200120:	ff84b583          	ld	a1,-8(s1)
    80200124:	15f1                	addi	a1,a1,-4
    80200126:	854e                	mv	a0,s3
    80200128:	00000097          	auipc	ra,0x0
    8020012c:	068080e7          	jalr	104(ra) # 80200190 <printf>
    fp = (uint64 *)*(fp - 2);
    80200130:	ff04b483          	ld	s1,-16(s1)
  while (fp < bottom) {
    80200134:	ff24e6e3          	bltu	s1,s2,80200120 <backtrace+0x3a>
  }
}
    80200138:	70a2                	ld	ra,40(sp)
    8020013a:	7402                	ld	s0,32(sp)
    8020013c:	64e2                	ld	s1,24(sp)
    8020013e:	6942                	ld	s2,16(sp)
    80200140:	69a2                	ld	s3,8(sp)
    80200142:	6145                	addi	sp,sp,48
    80200144:	8082                	ret

0000000080200146 <panic>:
{
    80200146:	1101                	addi	sp,sp,-32
    80200148:	ec06                	sd	ra,24(sp)
    8020014a:	e822                	sd	s0,16(sp)
    8020014c:	e426                	sd	s1,8(sp)
    8020014e:	1000                	addi	s0,sp,32
    80200150:	84aa                	mv	s1,a0
  printf("panic: ");
    80200152:	00009517          	auipc	a0,0x9
    80200156:	ed650513          	addi	a0,a0,-298 # 80209028 <etext+0x28>
    8020015a:	00000097          	auipc	ra,0x0
    8020015e:	036080e7          	jalr	54(ra) # 80200190 <printf>
  printf(s);
    80200162:	8526                	mv	a0,s1
    80200164:	00000097          	auipc	ra,0x0
    80200168:	02c080e7          	jalr	44(ra) # 80200190 <printf>
  printf("\n");
    8020016c:	00009517          	auipc	a0,0x9
    80200170:	f8450513          	addi	a0,a0,-124 # 802090f0 <etext+0xf0>
    80200174:	00000097          	auipc	ra,0x0
    80200178:	01c080e7          	jalr	28(ra) # 80200190 <printf>
  backtrace();
    8020017c:	00000097          	auipc	ra,0x0
    80200180:	f6a080e7          	jalr	-150(ra) # 802000e6 <backtrace>
  panicked = 1; // freeze uart output from other CPUs
    80200184:	4785                	li	a5,1
    80200186:	00013717          	auipc	a4,0x13
    8020018a:	e6f72d23          	sw	a5,-390(a4) # 80213000 <panicked>
  for(;;)
    8020018e:	a001                	j	8020018e <panic+0x48>

0000000080200190 <printf>:
{
    80200190:	7131                	addi	sp,sp,-192
    80200192:	fc86                	sd	ra,120(sp)
    80200194:	f8a2                	sd	s0,112(sp)
    80200196:	f4a6                	sd	s1,104(sp)
    80200198:	f0ca                	sd	s2,96(sp)
    8020019a:	ecce                	sd	s3,88(sp)
    8020019c:	e8d2                	sd	s4,80(sp)
    8020019e:	e4d6                	sd	s5,72(sp)
    802001a0:	e0da                	sd	s6,64(sp)
    802001a2:	fc5e                	sd	s7,56(sp)
    802001a4:	f862                	sd	s8,48(sp)
    802001a6:	f466                	sd	s9,40(sp)
    802001a8:	f06a                	sd	s10,32(sp)
    802001aa:	ec6e                	sd	s11,24(sp)
    802001ac:	0100                	addi	s0,sp,128
    802001ae:	8aaa                	mv	s5,a0
    802001b0:	e40c                	sd	a1,8(s0)
    802001b2:	e810                	sd	a2,16(s0)
    802001b4:	ec14                	sd	a3,24(s0)
    802001b6:	f018                	sd	a4,32(s0)
    802001b8:	f41c                	sd	a5,40(s0)
    802001ba:	03043823          	sd	a6,48(s0)
    802001be:	03143c23          	sd	a7,56(s0)
  locking = pr.locking;
    802001c2:	00013797          	auipc	a5,0x13
    802001c6:	e3e78793          	addi	a5,a5,-450 # 80213000 <panicked>
    802001ca:	0207ad83          	lw	s11,32(a5)
  if(locking)
    802001ce:	020d9b63          	bnez	s11,80200204 <printf+0x74>
  if (fmt == 0)
    802001d2:	040a8263          	beqz	s5,80200216 <printf+0x86>
  va_start(ap, fmt);
    802001d6:	00840793          	addi	a5,s0,8
    802001da:	f8f43423          	sd	a5,-120(s0)
  for(i = 0; (c = fmt[i] & 0xff) != 0; i++){
    802001de:	000ac503          	lbu	a0,0(s5)
    802001e2:	16050363          	beqz	a0,80200348 <printf+0x1b8>
    802001e6:	4481                	li	s1,0
    if(c != '%'){
    802001e8:	02500a13          	li	s4,37
    switch(c){
    802001ec:	07000b13          	li	s6,112
  consputc('x');
    802001f0:	4d41                	li	s10,16
    consputc(digits[x >> (sizeof(uint64) * 8 - 4)]);
    802001f2:	00009b97          	auipc	s7,0x9
    802001f6:	e0eb8b93          	addi	s7,s7,-498 # 80209000 <etext>
    switch(c){
    802001fa:	07300c93          	li	s9,115
    802001fe:	06400c13          	li	s8,100
    80200202:	a82d                	j	8020023c <printf+0xac>
    acquire(&pr.lock);
    80200204:	00013517          	auipc	a0,0x13
    80200208:	e0450513          	addi	a0,a0,-508 # 80213008 <pr>
    8020020c:	00000097          	auipc	ra,0x0
    80200210:	4cc080e7          	jalr	1228(ra) # 802006d8 <acquire>
    80200214:	bf7d                	j	802001d2 <printf+0x42>
    panic("null fmt");
    80200216:	00009517          	auipc	a0,0x9
    8020021a:	e2250513          	addi	a0,a0,-478 # 80209038 <etext+0x38>
    8020021e:	00000097          	auipc	ra,0x0
    80200222:	f28080e7          	jalr	-216(ra) # 80200146 <panic>
      consputc(c);
    80200226:	00007097          	auipc	ra,0x7
    8020022a:	bd6080e7          	jalr	-1066(ra) # 80206dfc <consputc>
  for(i = 0; (c = fmt[i] & 0xff) != 0; i++){
    8020022e:	2485                	addiw	s1,s1,1
    80200230:	009a87b3          	add	a5,s5,s1
    80200234:	0007c503          	lbu	a0,0(a5)
    80200238:	10050863          	beqz	a0,80200348 <printf+0x1b8>
    if(c != '%'){
    8020023c:	ff4515e3          	bne	a0,s4,80200226 <printf+0x96>
    c = fmt[++i] & 0xff;
    80200240:	2485                	addiw	s1,s1,1
    80200242:	009a87b3          	add	a5,s5,s1
    80200246:	0007c783          	lbu	a5,0(a5)
    8020024a:	0007891b          	sext.w	s2,a5
    if(c == 0)
    8020024e:	0e090d63          	beqz	s2,80200348 <printf+0x1b8>
    switch(c){
    80200252:	05678a63          	beq	a5,s6,802002a6 <printf+0x116>
    80200256:	02fb7663          	bleu	a5,s6,80200282 <printf+0xf2>
    8020025a:	09978963          	beq	a5,s9,802002ec <printf+0x15c>
    8020025e:	07800713          	li	a4,120
    80200262:	0ce79863          	bne	a5,a4,80200332 <printf+0x1a2>
      printint(va_arg(ap, int), 16, 1);
    80200266:	f8843783          	ld	a5,-120(s0)
    8020026a:	00878713          	addi	a4,a5,8
    8020026e:	f8e43423          	sd	a4,-120(s0)
    80200272:	4605                	li	a2,1
    80200274:	85ea                	mv	a1,s10
    80200276:	4388                	lw	a0,0(a5)
    80200278:	00000097          	auipc	ra,0x0
    8020027c:	d9e080e7          	jalr	-610(ra) # 80200016 <printint>
      break;
    80200280:	b77d                	j	8020022e <printf+0x9e>
    switch(c){
    80200282:	0b478263          	beq	a5,s4,80200326 <printf+0x196>
    80200286:	0b879663          	bne	a5,s8,80200332 <printf+0x1a2>
      printint(va_arg(ap, int), 10, 1);
    8020028a:	f8843783          	ld	a5,-120(s0)
    8020028e:	00878713          	addi	a4,a5,8
    80200292:	f8e43423          	sd	a4,-120(s0)
    80200296:	4605                	li	a2,1
    80200298:	45a9                	li	a1,10
    8020029a:	4388                	lw	a0,0(a5)
    8020029c:	00000097          	auipc	ra,0x0
    802002a0:	d7a080e7          	jalr	-646(ra) # 80200016 <printint>
      break;
    802002a4:	b769                	j	8020022e <printf+0x9e>
      printptr(va_arg(ap, uint64));
    802002a6:	f8843783          	ld	a5,-120(s0)
    802002aa:	00878713          	addi	a4,a5,8
    802002ae:	f8e43423          	sd	a4,-120(s0)
    802002b2:	0007b983          	ld	s3,0(a5)
  consputc('0');
    802002b6:	03000513          	li	a0,48
    802002ba:	00007097          	auipc	ra,0x7
    802002be:	b42080e7          	jalr	-1214(ra) # 80206dfc <consputc>
  consputc('x');
    802002c2:	07800513          	li	a0,120
    802002c6:	00007097          	auipc	ra,0x7
    802002ca:	b36080e7          	jalr	-1226(ra) # 80206dfc <consputc>
    802002ce:	896a                	mv	s2,s10
    consputc(digits[x >> (sizeof(uint64) * 8 - 4)]);
    802002d0:	03c9d793          	srli	a5,s3,0x3c
    802002d4:	97de                	add	a5,a5,s7
    802002d6:	0007c503          	lbu	a0,0(a5)
    802002da:	00007097          	auipc	ra,0x7
    802002de:	b22080e7          	jalr	-1246(ra) # 80206dfc <consputc>
  for (i = 0; i < (sizeof(uint64) * 2); i++, x <<= 4)
    802002e2:	0992                	slli	s3,s3,0x4
    802002e4:	397d                	addiw	s2,s2,-1
    802002e6:	fe0915e3          	bnez	s2,802002d0 <printf+0x140>
    802002ea:	b791                	j	8020022e <printf+0x9e>
      if((s = va_arg(ap, char*)) == 0)
    802002ec:	f8843783          	ld	a5,-120(s0)
    802002f0:	00878713          	addi	a4,a5,8
    802002f4:	f8e43423          	sd	a4,-120(s0)
    802002f8:	0007b903          	ld	s2,0(a5)
    802002fc:	00090e63          	beqz	s2,80200318 <printf+0x188>
      for(; *s; s++)
    80200300:	00094503          	lbu	a0,0(s2)
    80200304:	d50d                	beqz	a0,8020022e <printf+0x9e>
        consputc(*s);
    80200306:	00007097          	auipc	ra,0x7
    8020030a:	af6080e7          	jalr	-1290(ra) # 80206dfc <consputc>
      for(; *s; s++)
    8020030e:	0905                	addi	s2,s2,1
    80200310:	00094503          	lbu	a0,0(s2)
    80200314:	f96d                	bnez	a0,80200306 <printf+0x176>
    80200316:	bf21                	j	8020022e <printf+0x9e>
        s = "(null)";
    80200318:	00009917          	auipc	s2,0x9
    8020031c:	d1890913          	addi	s2,s2,-744 # 80209030 <etext+0x30>
      for(; *s; s++)
    80200320:	02800513          	li	a0,40
    80200324:	b7cd                	j	80200306 <printf+0x176>
      consputc('%');
    80200326:	8552                	mv	a0,s4
    80200328:	00007097          	auipc	ra,0x7
    8020032c:	ad4080e7          	jalr	-1324(ra) # 80206dfc <consputc>
      break;
    80200330:	bdfd                	j	8020022e <printf+0x9e>
      consputc('%');
    80200332:	8552                	mv	a0,s4
    80200334:	00007097          	auipc	ra,0x7
    80200338:	ac8080e7          	jalr	-1336(ra) # 80206dfc <consputc>
      consputc(c);
    8020033c:	854a                	mv	a0,s2
    8020033e:	00007097          	auipc	ra,0x7
    80200342:	abe080e7          	jalr	-1346(ra) # 80206dfc <consputc>
      break;
    80200346:	b5e5                	j	8020022e <printf+0x9e>
  if(locking)
    80200348:	020d9163          	bnez	s11,8020036a <printf+0x1da>
}
    8020034c:	70e6                	ld	ra,120(sp)
    8020034e:	7446                	ld	s0,112(sp)
    80200350:	74a6                	ld	s1,104(sp)
    80200352:	7906                	ld	s2,96(sp)
    80200354:	69e6                	ld	s3,88(sp)
    80200356:	6a46                	ld	s4,80(sp)
    80200358:	6aa6                	ld	s5,72(sp)
    8020035a:	6b06                	ld	s6,64(sp)
    8020035c:	7be2                	ld	s7,56(sp)
    8020035e:	7c42                	ld	s8,48(sp)
    80200360:	7ca2                	ld	s9,40(sp)
    80200362:	7d02                	ld	s10,32(sp)
    80200364:	6de2                	ld	s11,24(sp)
    80200366:	6129                	addi	sp,sp,192
    80200368:	8082                	ret
    release(&pr.lock);
    8020036a:	00013517          	auipc	a0,0x13
    8020036e:	c9e50513          	addi	a0,a0,-866 # 80213008 <pr>
    80200372:	00000097          	auipc	ra,0x0
    80200376:	3ba080e7          	jalr	954(ra) # 8020072c <release>
}
    8020037a:	bfc9                	j	8020034c <printf+0x1bc>

000000008020037c <printfinit>:

void
printfinit(void)
{
    8020037c:	1141                	addi	sp,sp,-16
    8020037e:	e406                	sd	ra,8(sp)
    80200380:	e022                	sd	s0,0(sp)
    80200382:	0800                	addi	s0,sp,16
  initlock(&pr.lock, "pr");
    80200384:	00009597          	auipc	a1,0x9
    80200388:	cc458593          	addi	a1,a1,-828 # 80209048 <etext+0x48>
    8020038c:	00013517          	auipc	a0,0x13
    80200390:	c7c50513          	addi	a0,a0,-900 # 80213008 <pr>
    80200394:	00000097          	auipc	ra,0x0
    80200398:	300080e7          	jalr	768(ra) # 80200694 <initlock>
  pr.locking = 1;   // changed, used to be 1
    8020039c:	4785                	li	a5,1
    8020039e:	00013717          	auipc	a4,0x13
    802003a2:	c8f72123          	sw	a5,-894(a4) # 80213020 <pr+0x18>
}
    802003a6:	60a2                	ld	ra,8(sp)
    802003a8:	6402                	ld	s0,0(sp)
    802003aa:	0141                	addi	sp,sp,16
    802003ac:	8082                	ret

00000000802003ae <print_logo>:

#ifdef QEMU
void print_logo() {
    802003ae:	1141                	addi	sp,sp,-16
    802003b0:	e406                	sd	ra,8(sp)
    802003b2:	e022                	sd	s0,0(sp)
    802003b4:	0800                	addi	s0,sp,16
    printf("  (`-.            (`-.                            .-')       ('-.    _   .-')\n");
    802003b6:	00009517          	auipc	a0,0x9
    802003ba:	c9a50513          	addi	a0,a0,-870 # 80209050 <etext+0x50>
    802003be:	00000097          	auipc	ra,0x0
    802003c2:	dd2080e7          	jalr	-558(ra) # 80200190 <printf>
    printf(" ( OO ).        _(OO  )_                        .(  OO)    _(  OO)  ( '.( OO )_ \n");
    802003c6:	00009517          	auipc	a0,0x9
    802003ca:	cda50513          	addi	a0,a0,-806 # 802090a0 <etext+0xa0>
    802003ce:	00000097          	auipc	ra,0x0
    802003d2:	dc2080e7          	jalr	-574(ra) # 80200190 <printf>
    printf("(_/.  \\_)-. ,--(_/   ,. \\  ,--.                (_)---\\_)  (,------.  ,--.   ,--.) ,--. ,--.  \n");
    802003d6:	00009517          	auipc	a0,0x9
    802003da:	d2250513          	addi	a0,a0,-734 # 802090f8 <etext+0xf8>
    802003de:	00000097          	auipc	ra,0x0
    802003e2:	db2080e7          	jalr	-590(ra) # 80200190 <printf>
    printf(" \\  `.'  /  \\   \\   /(__/ /  .'       .-')     '  .-.  '   |  .---'  |   `.'   |  |  | |  |   \n");
    802003e6:	00009517          	auipc	a0,0x9
    802003ea:	d7250513          	addi	a0,a0,-654 # 80209158 <etext+0x158>
    802003ee:	00000097          	auipc	ra,0x0
    802003f2:	da2080e7          	jalr	-606(ra) # 80200190 <printf>
    printf("  \\     /\\   \\   \\ /   / .  / -.    _(  OO)   ,|  | |  |   |  |      |         |  |  | | .-')\n");
    802003f6:	00009517          	auipc	a0,0x9
    802003fa:	dc250513          	addi	a0,a0,-574 # 802091b8 <etext+0x1b8>
    802003fe:	00000097          	auipc	ra,0x0
    80200402:	d92080e7          	jalr	-622(ra) # 80200190 <printf>
    printf("   \\   \\ |    \\   '   /, | .-.  '  (,------. (_|  | |  |  (|  '--.   |  |'.'|  |  |  |_|( OO )\n");
    80200406:	00009517          	auipc	a0,0x9
    8020040a:	e1250513          	addi	a0,a0,-494 # 80209218 <etext+0x218>
    8020040e:	00000097          	auipc	ra,0x0
    80200412:	d82080e7          	jalr	-638(ra) # 80200190 <printf>
    printf("  .'    \\_)    \\     /__)' \\  |  |  '------'   |  | |  |   |  .--'   |  |   |  |  |  | | `-' /\n");
    80200416:	00009517          	auipc	a0,0x9
    8020041a:	e6250513          	addi	a0,a0,-414 # 80209278 <etext+0x278>
    8020041e:	00000097          	auipc	ra,0x0
    80200422:	d72080e7          	jalr	-654(ra) # 80200190 <printf>
    printf(" /  .'.  \\      \\   /    \\  `'  /              '  '-'  '-. |  `---.  |  |   |  | ('  '-'(_.-'\n");
    80200426:	00009517          	auipc	a0,0x9
    8020042a:	eb250513          	addi	a0,a0,-334 # 802092d8 <etext+0x2d8>
    8020042e:	00000097          	auipc	ra,0x0
    80200432:	d62080e7          	jalr	-670(ra) # 80200190 <printf>
    printf("'--'   '--'      `-'      `----'                `-----'--' `------'  `--'   `--'   `-----'\n");
    80200436:	00009517          	auipc	a0,0x9
    8020043a:	f0250513          	addi	a0,a0,-254 # 80209338 <etext+0x338>
    8020043e:	00000097          	auipc	ra,0x0
    80200442:	d52080e7          	jalr	-686(ra) # 80200190 <printf>
}
    80200446:	60a2                	ld	ra,8(sp)
    80200448:	6402                	ld	s0,0(sp)
    8020044a:	0141                	addi	sp,sp,16
    8020044c:	8082                	ret

000000008020044e <kfree>:
// which normally should have been returned by a
// call to kalloc().  (The exception is when
// initializing the allocator; see kinit above.)
void
kfree(void *pa)
{
    8020044e:	1101                	addi	sp,sp,-32
    80200450:	ec06                	sd	ra,24(sp)
    80200452:	e822                	sd	s0,16(sp)
    80200454:	e426                	sd	s1,8(sp)
    80200456:	e04a                	sd	s2,0(sp)
    80200458:	1000                	addi	s0,sp,32
  struct run *r;
  
  if(((uint64)pa % PGSIZE) != 0 || (char*)pa < kernel_end || (uint64)pa >= PHYSTOP)
    8020045a:	6785                	lui	a5,0x1
    8020045c:	17fd                	addi	a5,a5,-1
    8020045e:	8fe9                	and	a5,a5,a0
    80200460:	e3ad                	bnez	a5,802004c2 <kfree+0x74>
    80200462:	84aa                	mv	s1,a0
    80200464:	0000a797          	auipc	a5,0xa
    80200468:	dfc7b783          	ld	a5,-516(a5) # 8020a260 <_GLOBAL_OFFSET_TABLE_+0x28>
    8020046c:	04f56b63          	bltu	a0,a5,802004c2 <kfree+0x74>
    80200470:	40300793          	li	a5,1027
    80200474:	07d6                	slli	a5,a5,0x15
    80200476:	04f57663          	bleu	a5,a0,802004c2 <kfree+0x74>
    panic("kfree");

  // Fill with junk to catch dangling refs.
  memset(pa, 1, PGSIZE);
    8020047a:	6605                	lui	a2,0x1
    8020047c:	4585                	li	a1,1
    8020047e:	00000097          	auipc	ra,0x0
    80200482:	2f6080e7          	jalr	758(ra) # 80200774 <memset>

  r = (struct run*)pa;

  acquire(&kmem.lock);
    80200486:	00013917          	auipc	s2,0x13
    8020048a:	ba290913          	addi	s2,s2,-1118 # 80213028 <kmem>
    8020048e:	854a                	mv	a0,s2
    80200490:	00000097          	auipc	ra,0x0
    80200494:	248080e7          	jalr	584(ra) # 802006d8 <acquire>
  r->next = kmem.freelist;
    80200498:	01893783          	ld	a5,24(s2)
    8020049c:	e09c                	sd	a5,0(s1)
  kmem.freelist = r;
    8020049e:	00993c23          	sd	s1,24(s2)
  kmem.npage++;
    802004a2:	02093783          	ld	a5,32(s2)
    802004a6:	0785                	addi	a5,a5,1
    802004a8:	02f93023          	sd	a5,32(s2)
  release(&kmem.lock);
    802004ac:	854a                	mv	a0,s2
    802004ae:	00000097          	auipc	ra,0x0
    802004b2:	27e080e7          	jalr	638(ra) # 8020072c <release>
}
    802004b6:	60e2                	ld	ra,24(sp)
    802004b8:	6442                	ld	s0,16(sp)
    802004ba:	64a2                	ld	s1,8(sp)
    802004bc:	6902                	ld	s2,0(sp)
    802004be:	6105                	addi	sp,sp,32
    802004c0:	8082                	ret
    panic("kfree");
    802004c2:	00009517          	auipc	a0,0x9
    802004c6:	ed650513          	addi	a0,a0,-298 # 80209398 <etext+0x398>
    802004ca:	00000097          	auipc	ra,0x0
    802004ce:	c7c080e7          	jalr	-900(ra) # 80200146 <panic>

00000000802004d2 <freerange>:
{
    802004d2:	7179                	addi	sp,sp,-48
    802004d4:	f406                	sd	ra,40(sp)
    802004d6:	f022                	sd	s0,32(sp)
    802004d8:	ec26                	sd	s1,24(sp)
    802004da:	e84a                	sd	s2,16(sp)
    802004dc:	e44e                	sd	s3,8(sp)
    802004de:	e052                	sd	s4,0(sp)
    802004e0:	1800                	addi	s0,sp,48
  p = (char*)PGROUNDUP((uint64)pa_start);
    802004e2:	6705                	lui	a4,0x1
    802004e4:	fff70793          	addi	a5,a4,-1 # fff <BASE_ADDRESS-0x801ff001>
    802004e8:	00f504b3          	add	s1,a0,a5
    802004ec:	77fd                	lui	a5,0xfffff
    802004ee:	8cfd                	and	s1,s1,a5
  for(; p + PGSIZE <= (char*)pa_end; p += PGSIZE)
    802004f0:	94ba                	add	s1,s1,a4
    802004f2:	0095ee63          	bltu	a1,s1,8020050e <freerange+0x3c>
    802004f6:	892e                	mv	s2,a1
    kfree(p);
    802004f8:	7a7d                	lui	s4,0xfffff
  for(; p + PGSIZE <= (char*)pa_end; p += PGSIZE)
    802004fa:	6985                	lui	s3,0x1
    kfree(p);
    802004fc:	01448533          	add	a0,s1,s4
    80200500:	00000097          	auipc	ra,0x0
    80200504:	f4e080e7          	jalr	-178(ra) # 8020044e <kfree>
  for(; p + PGSIZE <= (char*)pa_end; p += PGSIZE)
    80200508:	94ce                	add	s1,s1,s3
    8020050a:	fe9979e3          	bleu	s1,s2,802004fc <freerange+0x2a>
}
    8020050e:	70a2                	ld	ra,40(sp)
    80200510:	7402                	ld	s0,32(sp)
    80200512:	64e2                	ld	s1,24(sp)
    80200514:	6942                	ld	s2,16(sp)
    80200516:	69a2                	ld	s3,8(sp)
    80200518:	6a02                	ld	s4,0(sp)
    8020051a:	6145                	addi	sp,sp,48
    8020051c:	8082                	ret

000000008020051e <kinit>:
{
    8020051e:	1101                	addi	sp,sp,-32
    80200520:	ec06                	sd	ra,24(sp)
    80200522:	e822                	sd	s0,16(sp)
    80200524:	e426                	sd	s1,8(sp)
    80200526:	1000                	addi	s0,sp,32
  initlock(&kmem.lock, "kmem");
    80200528:	00013497          	auipc	s1,0x13
    8020052c:	b0048493          	addi	s1,s1,-1280 # 80213028 <kmem>
    80200530:	00009597          	auipc	a1,0x9
    80200534:	e7058593          	addi	a1,a1,-400 # 802093a0 <etext+0x3a0>
    80200538:	8526                	mv	a0,s1
    8020053a:	00000097          	auipc	ra,0x0
    8020053e:	15a080e7          	jalr	346(ra) # 80200694 <initlock>
  kmem.freelist = 0;
    80200542:	0004bc23          	sd	zero,24(s1)
  kmem.npage = 0;
    80200546:	0204b023          	sd	zero,32(s1)
  freerange(kernel_end, (void*)PHYSTOP);
    8020054a:	40300593          	li	a1,1027
    8020054e:	05d6                	slli	a1,a1,0x15
    80200550:	0000a517          	auipc	a0,0xa
    80200554:	d1053503          	ld	a0,-752(a0) # 8020a260 <_GLOBAL_OFFSET_TABLE_+0x28>
    80200558:	00000097          	auipc	ra,0x0
    8020055c:	f7a080e7          	jalr	-134(ra) # 802004d2 <freerange>
}
    80200560:	60e2                	ld	ra,24(sp)
    80200562:	6442                	ld	s0,16(sp)
    80200564:	64a2                	ld	s1,8(sp)
    80200566:	6105                	addi	sp,sp,32
    80200568:	8082                	ret

000000008020056a <kalloc>:
// Allocate one 4096-byte page of physical memory.
// Returns a pointer that the kernel can use.
// Returns 0 if the memory cannot be allocated.
void *
kalloc(void)
{
    8020056a:	1101                	addi	sp,sp,-32
    8020056c:	ec06                	sd	ra,24(sp)
    8020056e:	e822                	sd	s0,16(sp)
    80200570:	e426                	sd	s1,8(sp)
    80200572:	1000                	addi	s0,sp,32
  struct run *r;

  acquire(&kmem.lock);
    80200574:	00013497          	auipc	s1,0x13
    80200578:	ab448493          	addi	s1,s1,-1356 # 80213028 <kmem>
    8020057c:	8526                	mv	a0,s1
    8020057e:	00000097          	auipc	ra,0x0
    80200582:	15a080e7          	jalr	346(ra) # 802006d8 <acquire>
  r = kmem.freelist;
    80200586:	6c84                	ld	s1,24(s1)
  if(r) {
    80200588:	c89d                	beqz	s1,802005be <kalloc+0x54>
    kmem.freelist = r->next;
    8020058a:	609c                	ld	a5,0(s1)
    8020058c:	00013517          	auipc	a0,0x13
    80200590:	a9c50513          	addi	a0,a0,-1380 # 80213028 <kmem>
    80200594:	ed1c                	sd	a5,24(a0)
    kmem.npage--;
    80200596:	711c                	ld	a5,32(a0)
    80200598:	17fd                	addi	a5,a5,-1
    8020059a:	f11c                	sd	a5,32(a0)
  }
  release(&kmem.lock);
    8020059c:	00000097          	auipc	ra,0x0
    802005a0:	190080e7          	jalr	400(ra) # 8020072c <release>

  if(r)
    memset((char*)r, 5, PGSIZE); // fill with junk
    802005a4:	6605                	lui	a2,0x1
    802005a6:	4595                	li	a1,5
    802005a8:	8526                	mv	a0,s1
    802005aa:	00000097          	auipc	ra,0x0
    802005ae:	1ca080e7          	jalr	458(ra) # 80200774 <memset>
  return (void*)r;
}
    802005b2:	8526                	mv	a0,s1
    802005b4:	60e2                	ld	ra,24(sp)
    802005b6:	6442                	ld	s0,16(sp)
    802005b8:	64a2                	ld	s1,8(sp)
    802005ba:	6105                	addi	sp,sp,32
    802005bc:	8082                	ret
  release(&kmem.lock);
    802005be:	00013517          	auipc	a0,0x13
    802005c2:	a6a50513          	addi	a0,a0,-1430 # 80213028 <kmem>
    802005c6:	00000097          	auipc	ra,0x0
    802005ca:	166080e7          	jalr	358(ra) # 8020072c <release>
  if(r)
    802005ce:	b7d5                	j	802005b2 <kalloc+0x48>

00000000802005d0 <freemem_amount>:

uint64
freemem_amount(void)
{
    802005d0:	1141                	addi	sp,sp,-16
    802005d2:	e422                	sd	s0,8(sp)
    802005d4:	0800                	addi	s0,sp,16
  return kmem.npage << PGSHIFT;
    802005d6:	00013797          	auipc	a5,0x13
    802005da:	a5278793          	addi	a5,a5,-1454 # 80213028 <kmem>
    802005de:	7388                	ld	a0,32(a5)
}
    802005e0:	0532                	slli	a0,a0,0xc
    802005e2:	6422                	ld	s0,8(sp)
    802005e4:	0141                	addi	sp,sp,16
    802005e6:	8082                	ret

00000000802005e8 <push_off>:
// it takes two pop_off()s to undo two push_off()s.  Also, if interrupts
// are initially off, then push_off, pop_off leaves them off.

void
push_off(void)
{
    802005e8:	1101                	addi	sp,sp,-32
    802005ea:	ec06                	sd	ra,24(sp)
    802005ec:	e822                	sd	s0,16(sp)
    802005ee:	e426                	sd	s1,8(sp)
    802005f0:	1000                	addi	s0,sp,32
  asm volatile("csrr %0, sstatus" : "=r" (x) );
    802005f2:	100024f3          	csrr	s1,sstatus
    802005f6:	100027f3          	csrr	a5,sstatus
  w_sstatus(r_sstatus() & ~SSTATUS_SIE);
    802005fa:	9bf5                	andi	a5,a5,-3
  asm volatile("csrw sstatus, %0" : : "r" (x));
    802005fc:	10079073          	csrw	sstatus,a5
  int old = intr_get();

  intr_off();
  //printf("\e[32mpush_off()\e[0m: cpuid(): %d\n", cpuid());
  if(mycpu()->noff == 0)
    80200600:	00001097          	auipc	ra,0x1
    80200604:	4a4080e7          	jalr	1188(ra) # 80201aa4 <mycpu>
    80200608:	5d3c                	lw	a5,120(a0)
    8020060a:	cf89                	beqz	a5,80200624 <push_off+0x3c>
    mycpu()->intena = old;
  mycpu()->noff += 1;
    8020060c:	00001097          	auipc	ra,0x1
    80200610:	498080e7          	jalr	1176(ra) # 80201aa4 <mycpu>
    80200614:	5d3c                	lw	a5,120(a0)
    80200616:	2785                	addiw	a5,a5,1
    80200618:	dd3c                	sw	a5,120(a0)
}
    8020061a:	60e2                	ld	ra,24(sp)
    8020061c:	6442                	ld	s0,16(sp)
    8020061e:	64a2                	ld	s1,8(sp)
    80200620:	6105                	addi	sp,sp,32
    80200622:	8082                	ret
    mycpu()->intena = old;
    80200624:	00001097          	auipc	ra,0x1
    80200628:	480080e7          	jalr	1152(ra) # 80201aa4 <mycpu>
  return (x & SSTATUS_SIE) != 0;
    8020062c:	8085                	srli	s1,s1,0x1
    8020062e:	8885                	andi	s1,s1,1
    80200630:	dd64                	sw	s1,124(a0)
    80200632:	bfe9                	j	8020060c <push_off+0x24>

0000000080200634 <pop_off>:

void
pop_off(void)
{
    80200634:	1141                	addi	sp,sp,-16
    80200636:	e406                	sd	ra,8(sp)
    80200638:	e022                	sd	s0,0(sp)
    8020063a:	0800                	addi	s0,sp,16
  struct cpu *c = mycpu();
    8020063c:	00001097          	auipc	ra,0x1
    80200640:	468080e7          	jalr	1128(ra) # 80201aa4 <mycpu>
  asm volatile("csrr %0, sstatus" : "=r" (x) );
    80200644:	100027f3          	csrr	a5,sstatus
  return (x & SSTATUS_SIE) != 0;
    80200648:	8b89                	andi	a5,a5,2

  //printf("\e[31mpop_off()\e[0m: cpuid(): %d\n", cpuid());
  if(intr_get())
    8020064a:	e78d                	bnez	a5,80200674 <pop_off+0x40>
    panic("pop_off - interruptible");
  if(c->noff < 1) {
    8020064c:	5d3c                	lw	a5,120(a0)
    8020064e:	02f05b63          	blez	a5,80200684 <pop_off+0x50>
    //printf("c->noff = %d\n", c->noff);
    panic("pop_off");
  }
  //printf("c->noff: %d\n", c->noff);
  //printf("c: %x\n", c);
  c->noff -= 1;
    80200652:	37fd                	addiw	a5,a5,-1
    80200654:	0007871b          	sext.w	a4,a5
    80200658:	dd3c                	sw	a5,120(a0)
  if(c->noff == 0 && c->intena)
    8020065a:	eb09                	bnez	a4,8020066c <pop_off+0x38>
    8020065c:	5d7c                	lw	a5,124(a0)
    8020065e:	c799                	beqz	a5,8020066c <pop_off+0x38>
  asm volatile("csrr %0, sstatus" : "=r" (x) );
    80200660:	100027f3          	csrr	a5,sstatus
  w_sstatus(r_sstatus() | SSTATUS_SIE);
    80200664:	0027e793          	ori	a5,a5,2
  asm volatile("csrw sstatus, %0" : : "r" (x));
    80200668:	10079073          	csrw	sstatus,a5
    intr_on();
}
    8020066c:	60a2                	ld	ra,8(sp)
    8020066e:	6402                	ld	s0,0(sp)
    80200670:	0141                	addi	sp,sp,16
    80200672:	8082                	ret
    panic("pop_off - interruptible");
    80200674:	00009517          	auipc	a0,0x9
    80200678:	d3450513          	addi	a0,a0,-716 # 802093a8 <etext+0x3a8>
    8020067c:	00000097          	auipc	ra,0x0
    80200680:	aca080e7          	jalr	-1334(ra) # 80200146 <panic>
    panic("pop_off");
    80200684:	00009517          	auipc	a0,0x9
    80200688:	d3c50513          	addi	a0,a0,-708 # 802093c0 <etext+0x3c0>
    8020068c:	00000097          	auipc	ra,0x0
    80200690:	aba080e7          	jalr	-1350(ra) # 80200146 <panic>

0000000080200694 <initlock>:
#include "include/intr.h"
#include "include/printf.h"

void
initlock(struct spinlock *lk, char *name)
{
    80200694:	1141                	addi	sp,sp,-16
    80200696:	e422                	sd	s0,8(sp)
    80200698:	0800                	addi	s0,sp,16
  lk->name = name;
    8020069a:	e50c                	sd	a1,8(a0)
  lk->locked = 0;
    8020069c:	00052023          	sw	zero,0(a0)
  lk->cpu = 0;
    802006a0:	00053823          	sd	zero,16(a0)
}
    802006a4:	6422                	ld	s0,8(sp)
    802006a6:	0141                	addi	sp,sp,16
    802006a8:	8082                	ret

00000000802006aa <holding>:
// Interrupts must be off.
int
holding(struct spinlock *lk)
{
  int r;
  r = (lk->locked && lk->cpu == mycpu());
    802006aa:	411c                	lw	a5,0(a0)
    802006ac:	e399                	bnez	a5,802006b2 <holding+0x8>
    802006ae:	4501                	li	a0,0
  return r;
}
    802006b0:	8082                	ret
{
    802006b2:	1101                	addi	sp,sp,-32
    802006b4:	ec06                	sd	ra,24(sp)
    802006b6:	e822                	sd	s0,16(sp)
    802006b8:	e426                	sd	s1,8(sp)
    802006ba:	1000                	addi	s0,sp,32
  r = (lk->locked && lk->cpu == mycpu());
    802006bc:	6904                	ld	s1,16(a0)
    802006be:	00001097          	auipc	ra,0x1
    802006c2:	3e6080e7          	jalr	998(ra) # 80201aa4 <mycpu>
    802006c6:	40a48533          	sub	a0,s1,a0
    802006ca:	00153513          	seqz	a0,a0
}
    802006ce:	60e2                	ld	ra,24(sp)
    802006d0:	6442                	ld	s0,16(sp)
    802006d2:	64a2                	ld	s1,8(sp)
    802006d4:	6105                	addi	sp,sp,32
    802006d6:	8082                	ret

00000000802006d8 <acquire>:
{
    802006d8:	1101                	addi	sp,sp,-32
    802006da:	ec06                	sd	ra,24(sp)
    802006dc:	e822                	sd	s0,16(sp)
    802006de:	e426                	sd	s1,8(sp)
    802006e0:	1000                	addi	s0,sp,32
    802006e2:	84aa                	mv	s1,a0
  push_off(); // disable interrupts to avoid deadlock.
    802006e4:	00000097          	auipc	ra,0x0
    802006e8:	f04080e7          	jalr	-252(ra) # 802005e8 <push_off>
  if(holding(lk))
    802006ec:	8526                	mv	a0,s1
    802006ee:	00000097          	auipc	ra,0x0
    802006f2:	fbc080e7          	jalr	-68(ra) # 802006aa <holding>
  while(__sync_lock_test_and_set(&lk->locked, 1) != 0)
    802006f6:	4705                	li	a4,1
  if(holding(lk))
    802006f8:	e115                	bnez	a0,8020071c <acquire+0x44>
  while(__sync_lock_test_and_set(&lk->locked, 1) != 0)
    802006fa:	87ba                	mv	a5,a4
    802006fc:	0cf4a7af          	amoswap.w.aq	a5,a5,(s1)
    80200700:	2781                	sext.w	a5,a5
    80200702:	ffe5                	bnez	a5,802006fa <acquire+0x22>
  __sync_synchronize();
    80200704:	0ff0000f          	fence
  lk->cpu = mycpu();
    80200708:	00001097          	auipc	ra,0x1
    8020070c:	39c080e7          	jalr	924(ra) # 80201aa4 <mycpu>
    80200710:	e888                	sd	a0,16(s1)
}
    80200712:	60e2                	ld	ra,24(sp)
    80200714:	6442                	ld	s0,16(sp)
    80200716:	64a2                	ld	s1,8(sp)
    80200718:	6105                	addi	sp,sp,32
    8020071a:	8082                	ret
    panic("acquire");
    8020071c:	00009517          	auipc	a0,0x9
    80200720:	cac50513          	addi	a0,a0,-852 # 802093c8 <etext+0x3c8>
    80200724:	00000097          	auipc	ra,0x0
    80200728:	a22080e7          	jalr	-1502(ra) # 80200146 <panic>

000000008020072c <release>:
{
    8020072c:	1101                	addi	sp,sp,-32
    8020072e:	ec06                	sd	ra,24(sp)
    80200730:	e822                	sd	s0,16(sp)
    80200732:	e426                	sd	s1,8(sp)
    80200734:	1000                	addi	s0,sp,32
    80200736:	84aa                	mv	s1,a0
  if(!holding(lk))
    80200738:	00000097          	auipc	ra,0x0
    8020073c:	f72080e7          	jalr	-142(ra) # 802006aa <holding>
    80200740:	c115                	beqz	a0,80200764 <release+0x38>
  lk->cpu = 0;
    80200742:	0004b823          	sd	zero,16(s1)
  __sync_synchronize();
    80200746:	0ff0000f          	fence
  __sync_lock_release(&lk->locked);
    8020074a:	0f50000f          	fence	iorw,ow
    8020074e:	0804a02f          	amoswap.w	zero,zero,(s1)
  pop_off();
    80200752:	00000097          	auipc	ra,0x0
    80200756:	ee2080e7          	jalr	-286(ra) # 80200634 <pop_off>
}
    8020075a:	60e2                	ld	ra,24(sp)
    8020075c:	6442                	ld	s0,16(sp)
    8020075e:	64a2                	ld	s1,8(sp)
    80200760:	6105                	addi	sp,sp,32
    80200762:	8082                	ret
    panic("release");
    80200764:	00009517          	auipc	a0,0x9
    80200768:	c6c50513          	addi	a0,a0,-916 # 802093d0 <etext+0x3d0>
    8020076c:	00000097          	auipc	ra,0x0
    80200770:	9da080e7          	jalr	-1574(ra) # 80200146 <panic>

0000000080200774 <memset>:
#include "include/types.h"

void*
memset(void *dst, int c, uint n)
{
    80200774:	1141                	addi	sp,sp,-16
    80200776:	e422                	sd	s0,8(sp)
    80200778:	0800                	addi	s0,sp,16
  char *cdst = (char *) dst;
  int i;
  for(i = 0; i < n; i++){
    8020077a:	ce09                	beqz	a2,80200794 <memset+0x20>
    8020077c:	87aa                	mv	a5,a0
    8020077e:	fff6071b          	addiw	a4,a2,-1
    80200782:	1702                	slli	a4,a4,0x20
    80200784:	9301                	srli	a4,a4,0x20
    80200786:	0705                	addi	a4,a4,1
    80200788:	972a                	add	a4,a4,a0
    cdst[i] = c;
    8020078a:	00b78023          	sb	a1,0(a5)
  for(i = 0; i < n; i++){
    8020078e:	0785                	addi	a5,a5,1
    80200790:	fee79de3          	bne	a5,a4,8020078a <memset+0x16>
  }
  return dst;
}
    80200794:	6422                	ld	s0,8(sp)
    80200796:	0141                	addi	sp,sp,16
    80200798:	8082                	ret

000000008020079a <memcmp>:

int
memcmp(const void *v1, const void *v2, uint n)
{
    8020079a:	1141                	addi	sp,sp,-16
    8020079c:	e422                	sd	s0,8(sp)
    8020079e:	0800                	addi	s0,sp,16
  const uchar *s1, *s2;

  s1 = v1;
  s2 = v2;
  while(n-- > 0){
    802007a0:	ce15                	beqz	a2,802007dc <memcmp+0x42>
    802007a2:	fff6069b          	addiw	a3,a2,-1
    if(*s1 != *s2)
    802007a6:	00054783          	lbu	a5,0(a0)
    802007aa:	0005c703          	lbu	a4,0(a1)
    802007ae:	02e79063          	bne	a5,a4,802007ce <memcmp+0x34>
    802007b2:	1682                	slli	a3,a3,0x20
    802007b4:	9281                	srli	a3,a3,0x20
    802007b6:	0685                	addi	a3,a3,1
    802007b8:	96aa                	add	a3,a3,a0
      return *s1 - *s2;
    s1++, s2++;
    802007ba:	0505                	addi	a0,a0,1
    802007bc:	0585                	addi	a1,a1,1
  while(n-- > 0){
    802007be:	00d50d63          	beq	a0,a3,802007d8 <memcmp+0x3e>
    if(*s1 != *s2)
    802007c2:	00054783          	lbu	a5,0(a0)
    802007c6:	0005c703          	lbu	a4,0(a1)
    802007ca:	fee788e3          	beq	a5,a4,802007ba <memcmp+0x20>
      return *s1 - *s2;
    802007ce:	40e7853b          	subw	a0,a5,a4
  }

  return 0;
}
    802007d2:	6422                	ld	s0,8(sp)
    802007d4:	0141                	addi	sp,sp,16
    802007d6:	8082                	ret
  return 0;
    802007d8:	4501                	li	a0,0
    802007da:	bfe5                	j	802007d2 <memcmp+0x38>
    802007dc:	4501                	li	a0,0
    802007de:	bfd5                	j	802007d2 <memcmp+0x38>

00000000802007e0 <memmove>:

void*
memmove(void *dst, const void *src, uint n)
{
    802007e0:	1141                	addi	sp,sp,-16
    802007e2:	e422                	sd	s0,8(sp)
    802007e4:	0800                	addi	s0,sp,16
  const char *s;
  char *d;

  s = src;
  d = dst;
  if(s < d && s + n > d){
    802007e6:	00a5f963          	bleu	a0,a1,802007f8 <memmove+0x18>
    802007ea:	02061713          	slli	a4,a2,0x20
    802007ee:	9301                	srli	a4,a4,0x20
    802007f0:	00e587b3          	add	a5,a1,a4
    802007f4:	02f56563          	bltu	a0,a5,8020081e <memmove+0x3e>
    s += n;
    d += n;
    while(n-- > 0)
      *--d = *--s;
  } else
    while(n-- > 0)
    802007f8:	fff6069b          	addiw	a3,a2,-1
    802007fc:	ce11                	beqz	a2,80200818 <memmove+0x38>
    802007fe:	1682                	slli	a3,a3,0x20
    80200800:	9281                	srli	a3,a3,0x20
    80200802:	0685                	addi	a3,a3,1
    80200804:	96ae                	add	a3,a3,a1
    80200806:	87aa                	mv	a5,a0
      *d++ = *s++;
    80200808:	0585                	addi	a1,a1,1
    8020080a:	0785                	addi	a5,a5,1
    8020080c:	fff5c703          	lbu	a4,-1(a1)
    80200810:	fee78fa3          	sb	a4,-1(a5)
    while(n-- > 0)
    80200814:	fed59ae3          	bne	a1,a3,80200808 <memmove+0x28>

  return dst;
}
    80200818:	6422                	ld	s0,8(sp)
    8020081a:	0141                	addi	sp,sp,16
    8020081c:	8082                	ret
    d += n;
    8020081e:	972a                	add	a4,a4,a0
    while(n-- > 0)
    80200820:	fff6069b          	addiw	a3,a2,-1
    80200824:	da75                	beqz	a2,80200818 <memmove+0x38>
    80200826:	02069613          	slli	a2,a3,0x20
    8020082a:	9201                	srli	a2,a2,0x20
    8020082c:	fff64613          	not	a2,a2
    80200830:	963e                	add	a2,a2,a5
      *--d = *--s;
    80200832:	17fd                	addi	a5,a5,-1
    80200834:	177d                	addi	a4,a4,-1
    80200836:	0007c683          	lbu	a3,0(a5)
    8020083a:	00d70023          	sb	a3,0(a4)
    while(n-- > 0)
    8020083e:	fef61ae3          	bne	a2,a5,80200832 <memmove+0x52>
    80200842:	bfd9                	j	80200818 <memmove+0x38>

0000000080200844 <memcpy>:

// memcpy exists to placate GCC.  Use memmove.
void*
memcpy(void *dst, const void *src, uint n)
{
    80200844:	1141                	addi	sp,sp,-16
    80200846:	e406                	sd	ra,8(sp)
    80200848:	e022                	sd	s0,0(sp)
    8020084a:	0800                	addi	s0,sp,16
  return memmove(dst, src, n);
    8020084c:	00000097          	auipc	ra,0x0
    80200850:	f94080e7          	jalr	-108(ra) # 802007e0 <memmove>
}
    80200854:	60a2                	ld	ra,8(sp)
    80200856:	6402                	ld	s0,0(sp)
    80200858:	0141                	addi	sp,sp,16
    8020085a:	8082                	ret

000000008020085c <strncmp>:

int
strncmp(const char *p, const char *q, uint n)
{
    8020085c:	1141                	addi	sp,sp,-16
    8020085e:	e422                	sd	s0,8(sp)
    80200860:	0800                	addi	s0,sp,16
  while(n > 0 && *p && *p == *q)
    80200862:	c229                	beqz	a2,802008a4 <strncmp+0x48>
    80200864:	00054783          	lbu	a5,0(a0)
    80200868:	c795                	beqz	a5,80200894 <strncmp+0x38>
    8020086a:	0005c703          	lbu	a4,0(a1)
    8020086e:	02f71363          	bne	a4,a5,80200894 <strncmp+0x38>
    80200872:	fff6071b          	addiw	a4,a2,-1
    80200876:	1702                	slli	a4,a4,0x20
    80200878:	9301                	srli	a4,a4,0x20
    8020087a:	0705                	addi	a4,a4,1
    8020087c:	972a                	add	a4,a4,a0
    n--, p++, q++;
    8020087e:	0505                	addi	a0,a0,1
    80200880:	0585                	addi	a1,a1,1
  while(n > 0 && *p && *p == *q)
    80200882:	02e50363          	beq	a0,a4,802008a8 <strncmp+0x4c>
    80200886:	00054783          	lbu	a5,0(a0)
    8020088a:	c789                	beqz	a5,80200894 <strncmp+0x38>
    8020088c:	0005c683          	lbu	a3,0(a1)
    80200890:	fef687e3          	beq	a3,a5,8020087e <strncmp+0x22>
  if(n == 0)
    return 0;
  return (uchar)*p - (uchar)*q;
    80200894:	00054503          	lbu	a0,0(a0)
    80200898:	0005c783          	lbu	a5,0(a1)
    8020089c:	9d1d                	subw	a0,a0,a5
}
    8020089e:	6422                	ld	s0,8(sp)
    802008a0:	0141                	addi	sp,sp,16
    802008a2:	8082                	ret
    return 0;
    802008a4:	4501                	li	a0,0
    802008a6:	bfe5                	j	8020089e <strncmp+0x42>
    802008a8:	4501                	li	a0,0
    802008aa:	bfd5                	j	8020089e <strncmp+0x42>

00000000802008ac <strncpy>:

char*
strncpy(char *s, const char *t, int n)
{
    802008ac:	1141                	addi	sp,sp,-16
    802008ae:	e422                	sd	s0,8(sp)
    802008b0:	0800                	addi	s0,sp,16
  char *os;

  os = s;
  while(n-- > 0 && (*s++ = *t++) != 0)
    802008b2:	872a                	mv	a4,a0
    802008b4:	a011                	j	802008b8 <strncpy+0xc>
    802008b6:	8636                	mv	a2,a3
    802008b8:	fff6069b          	addiw	a3,a2,-1
    802008bc:	00c05963          	blez	a2,802008ce <strncpy+0x22>
    802008c0:	0705                	addi	a4,a4,1
    802008c2:	0005c783          	lbu	a5,0(a1)
    802008c6:	fef70fa3          	sb	a5,-1(a4)
    802008ca:	0585                	addi	a1,a1,1
    802008cc:	f7ed                	bnez	a5,802008b6 <strncpy+0xa>
    ;
  while(n-- > 0)
    802008ce:	00d05c63          	blez	a3,802008e6 <strncpy+0x3a>
    802008d2:	86ba                	mv	a3,a4
    *s++ = 0;
    802008d4:	0685                	addi	a3,a3,1
    802008d6:	fe068fa3          	sb	zero,-1(a3)
  while(n-- > 0)
    802008da:	fff6c793          	not	a5,a3
    802008de:	9fb9                	addw	a5,a5,a4
    802008e0:	9fb1                	addw	a5,a5,a2
    802008e2:	fef049e3          	bgtz	a5,802008d4 <strncpy+0x28>
  return os;
}
    802008e6:	6422                	ld	s0,8(sp)
    802008e8:	0141                	addi	sp,sp,16
    802008ea:	8082                	ret

00000000802008ec <safestrcpy>:

// Like strncpy but guaranteed to NUL-terminate.
char*
safestrcpy(char *s, const char *t, int n)
{
    802008ec:	1141                	addi	sp,sp,-16
    802008ee:	e422                	sd	s0,8(sp)
    802008f0:	0800                	addi	s0,sp,16
  char *os;

  os = s;
  if(n <= 0)
    802008f2:	02c05363          	blez	a2,80200918 <safestrcpy+0x2c>
    802008f6:	fff6069b          	addiw	a3,a2,-1
    802008fa:	1682                	slli	a3,a3,0x20
    802008fc:	9281                	srli	a3,a3,0x20
    802008fe:	96ae                	add	a3,a3,a1
    80200900:	87aa                	mv	a5,a0
    return os;
  while(--n > 0 && (*s++ = *t++) != 0)
    80200902:	00d58963          	beq	a1,a3,80200914 <safestrcpy+0x28>
    80200906:	0585                	addi	a1,a1,1
    80200908:	0785                	addi	a5,a5,1
    8020090a:	fff5c703          	lbu	a4,-1(a1)
    8020090e:	fee78fa3          	sb	a4,-1(a5)
    80200912:	fb65                	bnez	a4,80200902 <safestrcpy+0x16>
    ;
  *s = 0;
    80200914:	00078023          	sb	zero,0(a5)
  return os;
}
    80200918:	6422                	ld	s0,8(sp)
    8020091a:	0141                	addi	sp,sp,16
    8020091c:	8082                	ret

000000008020091e <strlen>:

int
strlen(const char *s)
{
    8020091e:	1141                	addi	sp,sp,-16
    80200920:	e422                	sd	s0,8(sp)
    80200922:	0800                	addi	s0,sp,16
  int n;

  for(n = 0; s[n]; n++)
    80200924:	00054783          	lbu	a5,0(a0)
    80200928:	cf91                	beqz	a5,80200944 <strlen+0x26>
    8020092a:	0505                	addi	a0,a0,1
    8020092c:	87aa                	mv	a5,a0
    8020092e:	4685                	li	a3,1
    80200930:	9e89                	subw	a3,a3,a0
    80200932:	00f6853b          	addw	a0,a3,a5
    80200936:	0785                	addi	a5,a5,1
    80200938:	fff7c703          	lbu	a4,-1(a5)
    8020093c:	fb7d                	bnez	a4,80200932 <strlen+0x14>
    ;
  return n;
}
    8020093e:	6422                	ld	s0,8(sp)
    80200940:	0141                	addi	sp,sp,16
    80200942:	8082                	ret
  for(n = 0; s[n]; n++)
    80200944:	4501                	li	a0,0
    80200946:	bfe5                	j	8020093e <strlen+0x20>

0000000080200948 <wnstr>:

// convert uchar string into wide char string 
void wnstr(wchar *dst, char const *src, int len) {
    80200948:	1141                	addi	sp,sp,-16
    8020094a:	e422                	sd	s0,8(sp)
    8020094c:	0800                	addi	s0,sp,16
  while (len -- && *src) {
    8020094e:	ca15                	beqz	a2,80200982 <wnstr+0x3a>
    80200950:	0005c783          	lbu	a5,0(a1)
    80200954:	cb8d                	beqz	a5,80200986 <wnstr+0x3e>
    80200956:	fff6071b          	addiw	a4,a2,-1
    8020095a:	1702                	slli	a4,a4,0x20
    8020095c:	9301                	srli	a4,a4,0x20
    8020095e:	0705                	addi	a4,a4,1
    80200960:	0706                	slli	a4,a4,0x1
    80200962:	972a                	add	a4,a4,a0
    *(uchar*)dst = *src++;
    80200964:	0585                	addi	a1,a1,1
    80200966:	00f50023          	sb	a5,0(a0)
    dst ++;
    8020096a:	0509                	addi	a0,a0,2
  while (len -- && *src) {
    8020096c:	00e50663          	beq	a0,a4,80200978 <wnstr+0x30>
    80200970:	0005c783          	lbu	a5,0(a1)
    80200974:	fbe5                	bnez	a5,80200964 <wnstr+0x1c>
    dst ++;
    80200976:	872a                	mv	a4,a0
  }

  *dst = 0;
    80200978:	00071023          	sh	zero,0(a4)
}
    8020097c:	6422                	ld	s0,8(sp)
    8020097e:	0141                	addi	sp,sp,16
    80200980:	8082                	ret
  while (len -- && *src) {
    80200982:	872a                	mv	a4,a0
    80200984:	bfd5                	j	80200978 <wnstr+0x30>
    80200986:	872a                	mv	a4,a0
    80200988:	bfc5                	j	80200978 <wnstr+0x30>

000000008020098a <snstr>:

// convert wide char string into uchar string 
void snstr(char *dst, wchar const *src, int len) {
    8020098a:	1141                	addi	sp,sp,-16
    8020098c:	e422                	sd	s0,8(sp)
    8020098e:	0800                	addi	s0,sp,16
  while (len -- && *src) {
    80200990:	c229                	beqz	a2,802009d2 <snstr+0x48>
    80200992:	fff6071b          	addiw	a4,a2,-1
    80200996:	0005d783          	lhu	a5,0(a1)
    8020099a:	cf99                	beqz	a5,802009b8 <snstr+0x2e>
    8020099c:	3679                	addiw	a2,a2,-2
    8020099e:	56fd                	li	a3,-1
    *dst++ = (uchar)(*src & 0xff);
    802009a0:	0505                	addi	a0,a0,1
    802009a2:	fef50fa3          	sb	a5,-1(a0)
    src ++;
    802009a6:	0589                	addi	a1,a1,2
  while (len -- && *src) {
    802009a8:	0006071b          	sext.w	a4,a2
    802009ac:	02d60363          	beq	a2,a3,802009d2 <snstr+0x48>
    802009b0:	0005d783          	lhu	a5,0(a1)
    802009b4:	367d                	addiw	a2,a2,-1
    802009b6:	f7ed                	bnez	a5,802009a0 <snstr+0x16>
  }
  while(len-- > 0)
    802009b8:	00e05d63          	blez	a4,802009d2 <snstr+0x48>
    802009bc:	fff7079b          	addiw	a5,a4,-1
    802009c0:	1782                	slli	a5,a5,0x20
    802009c2:	9381                	srli	a5,a5,0x20
    802009c4:	0785                	addi	a5,a5,1
    802009c6:	97aa                	add	a5,a5,a0
    *dst++ = 0;
    802009c8:	0505                	addi	a0,a0,1
    802009ca:	fe050fa3          	sb	zero,-1(a0)
  while(len-- > 0)
    802009ce:	fea79de3          	bne	a5,a0,802009c8 <snstr+0x3e>
}
    802009d2:	6422                	ld	s0,8(sp)
    802009d4:	0141                	addi	sp,sp,16
    802009d6:	8082                	ret

00000000802009d8 <wcsncmp>:

int wcsncmp(wchar const *s1, wchar const *s2, int len) {
    802009d8:	1141                	addi	sp,sp,-16
    802009da:	e422                	sd	s0,8(sp)
    802009dc:	0800                	addi	s0,sp,16
  int ret = 0;

  while (len-- && *s1) {
    802009de:	1602                	slli	a2,a2,0x20
    802009e0:	9201                	srli	a2,a2,0x20
    802009e2:	0606                	slli	a2,a2,0x1
    802009e4:	962e                	add	a2,a2,a1
    802009e6:	00c58c63          	beq	a1,a2,802009fe <wcsncmp+0x26>
    802009ea:	00055783          	lhu	a5,0(a0)
    802009ee:	cb89                	beqz	a5,80200a00 <wcsncmp+0x28>
    ret = (int)(*s1++ - *s2++);
    802009f0:	0509                	addi	a0,a0,2
    802009f2:	0589                	addi	a1,a1,2
    802009f4:	ffe5d703          	lhu	a4,-2(a1)
    802009f8:	9f99                	subw	a5,a5,a4
    if (ret) break;
    802009fa:	d7f5                	beqz	a5,802009e6 <wcsncmp+0xe>
    802009fc:	a011                	j	80200a00 <wcsncmp+0x28>
    802009fe:	4781                	li	a5,0
  }

  return ret;
}
    80200a00:	853e                	mv	a0,a5
    80200a02:	6422                	ld	s0,8(sp)
    80200a04:	0141                	addi	sp,sp,16
    80200a06:	8082                	ret

0000000080200a08 <strchr>:

char*
strchr(const char *s, char c)
{
    80200a08:	1141                	addi	sp,sp,-16
    80200a0a:	e422                	sd	s0,8(sp)
    80200a0c:	0800                	addi	s0,sp,16
  for(; *s; s++)
    80200a0e:	00054783          	lbu	a5,0(a0)
    80200a12:	cf91                	beqz	a5,80200a2e <strchr+0x26>
    if(*s == c)
    80200a14:	00f58a63          	beq	a1,a5,80200a28 <strchr+0x20>
  for(; *s; s++)
    80200a18:	0505                	addi	a0,a0,1
    80200a1a:	00054783          	lbu	a5,0(a0)
    80200a1e:	c781                	beqz	a5,80200a26 <strchr+0x1e>
    if(*s == c)
    80200a20:	feb79ce3          	bne	a5,a1,80200a18 <strchr+0x10>
    80200a24:	a011                	j	80200a28 <strchr+0x20>
      return (char*)s;
  return 0;
    80200a26:	4501                	li	a0,0
    80200a28:	6422                	ld	s0,8(sp)
    80200a2a:	0141                	addi	sp,sp,16
    80200a2c:	8082                	ret
  return 0;
    80200a2e:	4501                	li	a0,0
    80200a30:	bfe5                	j	80200a28 <strchr+0x20>

0000000080200a32 <main>:

volatile static int started = 0;

void
main(unsigned long hartid, unsigned long dtb_pa)
{
    80200a32:	1101                	addi	sp,sp,-32
    80200a34:	ec06                	sd	ra,24(sp)
    80200a36:	e822                	sd	s0,16(sp)
    80200a38:	1000                	addi	s0,sp,32
  asm volatile("mv tp, %0" : : "r" (hartid & 0x1));
    80200a3a:	00157793          	andi	a5,a0,1
    80200a3e:	823e                	mv	tp,a5
    started = 1;
  }
  else
  {
    // hart 1
    while (started == 0)
    80200a40:	00012717          	auipc	a4,0x12
    80200a44:	61070713          	addi	a4,a4,1552 # 80213050 <started>
  if (hartid == 0) {
    80200a48:	cd15                	beqz	a0,80200a84 <main+0x52>
    while (started == 0)
    80200a4a:	431c                	lw	a5,0(a4)
    80200a4c:	2781                	sext.w	a5,a5
    80200a4e:	dff5                	beqz	a5,80200a4a <main+0x18>
      ;
    __sync_synchronize();
    80200a50:	0ff0000f          	fence
    #ifdef DEBUG
    printf("hart %d enter main()...\n", hartid);
    #endif
    kvminithart();
    80200a54:	00000097          	auipc	ra,0x0
    80200a58:	0de080e7          	jalr	222(ra) # 80200b32 <kvminithart>
    trapinithart();
    80200a5c:	00002097          	auipc	ra,0x2
    80200a60:	d6a080e7          	jalr	-662(ra) # 802027c6 <trapinithart>
    plicinithart();  // ask PLIC for device interrupts
    80200a64:	00006097          	auipc	ra,0x6
    80200a68:	14e080e7          	jalr	334(ra) # 80206bb2 <plicinithart>
    printf("hart 1 init done\n");
    80200a6c:	00009517          	auipc	a0,0x9
    80200a70:	98450513          	addi	a0,a0,-1660 # 802093f0 <etext+0x3f0>
    80200a74:	fffff097          	auipc	ra,0xfffff
    80200a78:	71c080e7          	jalr	1820(ra) # 80200190 <printf>
  }
  scheduler();
    80200a7c:	00001097          	auipc	ra,0x1
    80200a80:	5d6080e7          	jalr	1494(ra) # 80202052 <scheduler>
    consoleinit();
    80200a84:	00006097          	auipc	ra,0x6
    80200a88:	56a080e7          	jalr	1386(ra) # 80206fee <consoleinit>
    printfinit();   // init a lock for printf 
    80200a8c:	00000097          	auipc	ra,0x0
    80200a90:	8f0080e7          	jalr	-1808(ra) # 8020037c <printfinit>
    print_logo();
    80200a94:	00000097          	auipc	ra,0x0
    80200a98:	91a080e7          	jalr	-1766(ra) # 802003ae <print_logo>
    kinit();         // physical page allocator
    80200a9c:	00000097          	auipc	ra,0x0
    80200aa0:	a82080e7          	jalr	-1406(ra) # 8020051e <kinit>
    kvminit();       // create kernel page table
    80200aa4:	00000097          	auipc	ra,0x0
    80200aa8:	2dc080e7          	jalr	732(ra) # 80200d80 <kvminit>
    kvminithart();   // turn on paging
    80200aac:	00000097          	auipc	ra,0x0
    80200ab0:	086080e7          	jalr	134(ra) # 80200b32 <kvminithart>
    timerinit();     // init a lock for timer
    80200ab4:	00004097          	auipc	ra,0x4
    80200ab8:	66a080e7          	jalr	1642(ra) # 8020511e <timerinit>
    trapinithart();  // install kernel trap vector, including interrupt handler
    80200abc:	00002097          	auipc	ra,0x2
    80200ac0:	d0a080e7          	jalr	-758(ra) # 802027c6 <trapinithart>
    procinit();
    80200ac4:	00001097          	auipc	ra,0x1
    80200ac8:	f5a080e7          	jalr	-166(ra) # 80201a1e <procinit>
    plicinit();
    80200acc:	00006097          	auipc	ra,0x6
    80200ad0:	0ce080e7          	jalr	206(ra) # 80206b9a <plicinit>
    plicinithart();
    80200ad4:	00006097          	auipc	ra,0x6
    80200ad8:	0de080e7          	jalr	222(ra) # 80206bb2 <plicinithart>
    disk_init();
    80200adc:	00004097          	auipc	ra,0x4
    80200ae0:	6f4080e7          	jalr	1780(ra) # 802051d0 <disk_init>
    binit();         // buffer cache
    80200ae4:	00003097          	auipc	ra,0x3
    80200ae8:	974080e7          	jalr	-1676(ra) # 80203458 <binit>
    fileinit();      // file table
    80200aec:	00003097          	auipc	ra,0x3
    80200af0:	d8a080e7          	jalr	-630(ra) # 80203876 <fileinit>
    userinit();      // first user process
    80200af4:	00001097          	auipc	ra,0x1
    80200af8:	2f0080e7          	jalr	752(ra) # 80201de4 <userinit>
    printf("hart 0 init done\n");
    80200afc:	00009517          	auipc	a0,0x9
    80200b00:	8dc50513          	addi	a0,a0,-1828 # 802093d8 <etext+0x3d8>
    80200b04:	fffff097          	auipc	ra,0xfffff
    80200b08:	68c080e7          	jalr	1676(ra) # 80200190 <printf>
      unsigned long mask = 1 << i;
    80200b0c:	4789                	li	a5,2
    80200b0e:	fef43423          	sd	a5,-24(s0)
	SBI_CALL_0(SBI_CLEAR_IPI);
}

static inline void sbi_send_ipi(const unsigned long *hart_mask)
{
	SBI_CALL_1(SBI_SEND_IPI, hart_mask);
    80200b12:	fe840513          	addi	a0,s0,-24
    80200b16:	4581                	li	a1,0
    80200b18:	4601                	li	a2,0
    80200b1a:	4681                	li	a3,0
    80200b1c:	4891                	li	a7,4
    80200b1e:	00000073          	ecall
    __sync_synchronize();
    80200b22:	0ff0000f          	fence
    started = 1;
    80200b26:	4785                	li	a5,1
    80200b28:	00012717          	auipc	a4,0x12
    80200b2c:	52f72423          	sw	a5,1320(a4) # 80213050 <started>
    80200b30:	b7b1                	j	80200a7c <main+0x4a>

0000000080200b32 <kvminithart>:

// Switch h/w page table register to the kernel's page table,
// and enable paging.
void
kvminithart()
{
    80200b32:	1141                	addi	sp,sp,-16
    80200b34:	e422                	sd	s0,8(sp)
    80200b36:	0800                	addi	s0,sp,16
  w_satp(MAKE_SATP(kernel_pagetable));
    80200b38:	00012797          	auipc	a5,0x12
    80200b3c:	52078793          	addi	a5,a5,1312 # 80213058 <kernel_pagetable>
    80200b40:	639c                	ld	a5,0(a5)
    80200b42:	83b1                	srli	a5,a5,0xc
    80200b44:	577d                	li	a4,-1
    80200b46:	177e                	slli	a4,a4,0x3f
    80200b48:	8fd9                	or	a5,a5,a4
  asm volatile("csrw satp, %0" : : "r" (x));
    80200b4a:	18079073          	csrw	satp,a5
static inline void
sfence_vma()
{
  // the zero, zero means flush all TLB entries.
  // asm volatile("sfence.vma zero, zero");
  asm volatile("sfence.vma");
    80200b4e:	12000073          	sfence.vma
  // reg_info();
  sfence_vma();
  #ifdef DEBUG
  printf("kvminithart\n");
  #endif
}
    80200b52:	6422                	ld	s0,8(sp)
    80200b54:	0141                	addi	sp,sp,16
    80200b56:	8082                	ret

0000000080200b58 <walk>:
//   21..29 -- 9 bits of level-1 index.
//   12..20 -- 9 bits of level-0 index.
//    0..11 -- 12 bits of byte offset within the page.
pte_t *
walk(pagetable_t pagetable, uint64 va, int alloc)
{
    80200b58:	7139                	addi	sp,sp,-64
    80200b5a:	fc06                	sd	ra,56(sp)
    80200b5c:	f822                	sd	s0,48(sp)
    80200b5e:	f426                	sd	s1,40(sp)
    80200b60:	f04a                	sd	s2,32(sp)
    80200b62:	ec4e                	sd	s3,24(sp)
    80200b64:	e852                	sd	s4,16(sp)
    80200b66:	e456                	sd	s5,8(sp)
    80200b68:	e05a                	sd	s6,0(sp)
    80200b6a:	0080                	addi	s0,sp,64
    80200b6c:	84aa                	mv	s1,a0
    80200b6e:	89ae                	mv	s3,a1
    80200b70:	8b32                	mv	s6,a2
  
  if(va >= MAXVA)
    80200b72:	57fd                	li	a5,-1
    80200b74:	83e9                	srli	a5,a5,0x1a
    80200b76:	4a79                	li	s4,30
    panic("walk");

  for(int level = 2; level > 0; level--) {
    80200b78:	4ab1                	li	s5,12
  if(va >= MAXVA)
    80200b7a:	04b7f263          	bleu	a1,a5,80200bbe <walk+0x66>
    panic("walk");
    80200b7e:	00009517          	auipc	a0,0x9
    80200b82:	88a50513          	addi	a0,a0,-1910 # 80209408 <etext+0x408>
    80200b86:	fffff097          	auipc	ra,0xfffff
    80200b8a:	5c0080e7          	jalr	1472(ra) # 80200146 <panic>
    pte_t *pte = &pagetable[PX(level, va)];
    if(*pte & PTE_V) {
      pagetable = (pagetable_t)PTE2PA(*pte);
    } else {
      if(!alloc || (pagetable = (pde_t*)kalloc()) == NULL)
    80200b8e:	060b0663          	beqz	s6,80200bfa <walk+0xa2>
    80200b92:	00000097          	auipc	ra,0x0
    80200b96:	9d8080e7          	jalr	-1576(ra) # 8020056a <kalloc>
    80200b9a:	84aa                	mv	s1,a0
    80200b9c:	c529                	beqz	a0,80200be6 <walk+0x8e>
        return NULL;
      memset(pagetable, 0, PGSIZE);
    80200b9e:	6605                	lui	a2,0x1
    80200ba0:	4581                	li	a1,0
    80200ba2:	00000097          	auipc	ra,0x0
    80200ba6:	bd2080e7          	jalr	-1070(ra) # 80200774 <memset>
      *pte = PA2PTE(pagetable) | PTE_V;
    80200baa:	00c4d793          	srli	a5,s1,0xc
    80200bae:	07aa                	slli	a5,a5,0xa
    80200bb0:	0017e793          	ori	a5,a5,1
    80200bb4:	00f93023          	sd	a5,0(s2)
  for(int level = 2; level > 0; level--) {
    80200bb8:	3a5d                	addiw	s4,s4,-9
    80200bba:	035a0063          	beq	s4,s5,80200bda <walk+0x82>
    pte_t *pte = &pagetable[PX(level, va)];
    80200bbe:	0149d933          	srl	s2,s3,s4
    80200bc2:	1ff97913          	andi	s2,s2,511
    80200bc6:	090e                	slli	s2,s2,0x3
    80200bc8:	9926                	add	s2,s2,s1
    if(*pte & PTE_V) {
    80200bca:	00093483          	ld	s1,0(s2)
    80200bce:	0014f793          	andi	a5,s1,1
    80200bd2:	dfd5                	beqz	a5,80200b8e <walk+0x36>
      pagetable = (pagetable_t)PTE2PA(*pte);
    80200bd4:	80a9                	srli	s1,s1,0xa
    80200bd6:	04b2                	slli	s1,s1,0xc
    80200bd8:	b7c5                	j	80200bb8 <walk+0x60>
    }
  }
  return &pagetable[PX(0, va)];
    80200bda:	00c9d513          	srli	a0,s3,0xc
    80200bde:	1ff57513          	andi	a0,a0,511
    80200be2:	050e                	slli	a0,a0,0x3
    80200be4:	9526                	add	a0,a0,s1
}
    80200be6:	70e2                	ld	ra,56(sp)
    80200be8:	7442                	ld	s0,48(sp)
    80200bea:	74a2                	ld	s1,40(sp)
    80200bec:	7902                	ld	s2,32(sp)
    80200bee:	69e2                	ld	s3,24(sp)
    80200bf0:	6a42                	ld	s4,16(sp)
    80200bf2:	6aa2                	ld	s5,8(sp)
    80200bf4:	6b02                	ld	s6,0(sp)
    80200bf6:	6121                	addi	sp,sp,64
    80200bf8:	8082                	ret
        return NULL;
    80200bfa:	4501                	li	a0,0
    80200bfc:	b7ed                	j	80200be6 <walk+0x8e>

0000000080200bfe <walkaddr>:
walkaddr(pagetable_t pagetable, uint64 va)
{
  pte_t *pte;
  uint64 pa;

  if(va >= MAXVA)
    80200bfe:	57fd                	li	a5,-1
    80200c00:	83e9                	srli	a5,a5,0x1a
    80200c02:	00b7f463          	bleu	a1,a5,80200c0a <walkaddr+0xc>
    return NULL;
    80200c06:	4501                	li	a0,0
    return NULL;
  if((*pte & PTE_U) == 0)
    return NULL;
  pa = PTE2PA(*pte);
  return pa;
}
    80200c08:	8082                	ret
{
    80200c0a:	1141                	addi	sp,sp,-16
    80200c0c:	e406                	sd	ra,8(sp)
    80200c0e:	e022                	sd	s0,0(sp)
    80200c10:	0800                	addi	s0,sp,16
  pte = walk(pagetable, va, 0);
    80200c12:	4601                	li	a2,0
    80200c14:	00000097          	auipc	ra,0x0
    80200c18:	f44080e7          	jalr	-188(ra) # 80200b58 <walk>
  if(pte == 0)
    80200c1c:	c105                	beqz	a0,80200c3c <walkaddr+0x3e>
  if((*pte & PTE_V) == 0)
    80200c1e:	611c                	ld	a5,0(a0)
  if((*pte & PTE_U) == 0)
    80200c20:	0117f693          	andi	a3,a5,17
    80200c24:	4745                	li	a4,17
    return NULL;
    80200c26:	4501                	li	a0,0
  if((*pte & PTE_U) == 0)
    80200c28:	00e68663          	beq	a3,a4,80200c34 <walkaddr+0x36>
}
    80200c2c:	60a2                	ld	ra,8(sp)
    80200c2e:	6402                	ld	s0,0(sp)
    80200c30:	0141                	addi	sp,sp,16
    80200c32:	8082                	ret
  pa = PTE2PA(*pte);
    80200c34:	00a7d513          	srli	a0,a5,0xa
    80200c38:	0532                	slli	a0,a0,0xc
  return pa;
    80200c3a:	bfcd                	j	80200c2c <walkaddr+0x2e>
    return NULL;
    80200c3c:	4501                	li	a0,0
    80200c3e:	b7fd                	j	80200c2c <walkaddr+0x2e>

0000000080200c40 <kwalkaddr>:
  return kwalkaddr(kernel_pagetable, va);
}

uint64
kwalkaddr(pagetable_t kpt, uint64 va)
{
    80200c40:	1101                	addi	sp,sp,-32
    80200c42:	ec06                	sd	ra,24(sp)
    80200c44:	e822                	sd	s0,16(sp)
    80200c46:	e426                	sd	s1,8(sp)
    80200c48:	1000                	addi	s0,sp,32
  uint64 off = va % PGSIZE;
    80200c4a:	6785                	lui	a5,0x1
    80200c4c:	17fd                	addi	a5,a5,-1
    80200c4e:	00f5f4b3          	and	s1,a1,a5
  pte_t *pte;
  uint64 pa;
  
  pte = walk(kpt, va, 0);
    80200c52:	4601                	li	a2,0
    80200c54:	00000097          	auipc	ra,0x0
    80200c58:	f04080e7          	jalr	-252(ra) # 80200b58 <walk>
  if(pte == 0)
    80200c5c:	cd09                	beqz	a0,80200c76 <kwalkaddr+0x36>
    panic("kvmpa");
  if((*pte & PTE_V) == 0)
    80200c5e:	6108                	ld	a0,0(a0)
    80200c60:	00157793          	andi	a5,a0,1
    80200c64:	c38d                	beqz	a5,80200c86 <kwalkaddr+0x46>
    panic("kvmpa");
  pa = PTE2PA(*pte);
    80200c66:	8129                	srli	a0,a0,0xa
    80200c68:	0532                	slli	a0,a0,0xc
  return pa+off;
}
    80200c6a:	9526                	add	a0,a0,s1
    80200c6c:	60e2                	ld	ra,24(sp)
    80200c6e:	6442                	ld	s0,16(sp)
    80200c70:	64a2                	ld	s1,8(sp)
    80200c72:	6105                	addi	sp,sp,32
    80200c74:	8082                	ret
    panic("kvmpa");
    80200c76:	00008517          	auipc	a0,0x8
    80200c7a:	79a50513          	addi	a0,a0,1946 # 80209410 <etext+0x410>
    80200c7e:	fffff097          	auipc	ra,0xfffff
    80200c82:	4c8080e7          	jalr	1224(ra) # 80200146 <panic>
    panic("kvmpa");
    80200c86:	00008517          	auipc	a0,0x8
    80200c8a:	78a50513          	addi	a0,a0,1930 # 80209410 <etext+0x410>
    80200c8e:	fffff097          	auipc	ra,0xfffff
    80200c92:	4b8080e7          	jalr	1208(ra) # 80200146 <panic>

0000000080200c96 <kvmpa>:
{
    80200c96:	1141                	addi	sp,sp,-16
    80200c98:	e406                	sd	ra,8(sp)
    80200c9a:	e022                	sd	s0,0(sp)
    80200c9c:	0800                	addi	s0,sp,16
  return kwalkaddr(kernel_pagetable, va);
    80200c9e:	85aa                	mv	a1,a0
    80200ca0:	00012797          	auipc	a5,0x12
    80200ca4:	3b878793          	addi	a5,a5,952 # 80213058 <kernel_pagetable>
    80200ca8:	6388                	ld	a0,0(a5)
    80200caa:	00000097          	auipc	ra,0x0
    80200cae:	f96080e7          	jalr	-106(ra) # 80200c40 <kwalkaddr>
}
    80200cb2:	60a2                	ld	ra,8(sp)
    80200cb4:	6402                	ld	s0,0(sp)
    80200cb6:	0141                	addi	sp,sp,16
    80200cb8:	8082                	ret

0000000080200cba <mappages>:
// physical addresses starting at pa. va and size might not
// be page-aligned. Returns 0 on success, -1 if walk() couldn't
// allocate a needed page-table page.
int
mappages(pagetable_t pagetable, uint64 va, uint64 size, uint64 pa, int perm)
{
    80200cba:	715d                	addi	sp,sp,-80
    80200cbc:	e486                	sd	ra,72(sp)
    80200cbe:	e0a2                	sd	s0,64(sp)
    80200cc0:	fc26                	sd	s1,56(sp)
    80200cc2:	f84a                	sd	s2,48(sp)
    80200cc4:	f44e                	sd	s3,40(sp)
    80200cc6:	f052                	sd	s4,32(sp)
    80200cc8:	ec56                	sd	s5,24(sp)
    80200cca:	e85a                	sd	s6,16(sp)
    80200ccc:	e45e                	sd	s7,8(sp)
    80200cce:	0880                	addi	s0,sp,80
    80200cd0:	8aaa                	mv	s5,a0
    80200cd2:	8b3a                	mv	s6,a4
  uint64 a, last;
  pte_t *pte;

  a = PGROUNDDOWN(va);
    80200cd4:	79fd                	lui	s3,0xfffff
    80200cd6:	0135fa33          	and	s4,a1,s3
  last = PGROUNDDOWN(va + size - 1);
    80200cda:	167d                	addi	a2,a2,-1
    80200cdc:	962e                	add	a2,a2,a1
    80200cde:	013679b3          	and	s3,a2,s3
  a = PGROUNDDOWN(va);
    80200ce2:	8952                	mv	s2,s4
    80200ce4:	41468a33          	sub	s4,a3,s4
    if(*pte & PTE_V)
      panic("remap");
    *pte = PA2PTE(pa) | perm | PTE_V;
    if(a == last)
      break;
    a += PGSIZE;
    80200ce8:	6b85                	lui	s7,0x1
    80200cea:	a811                	j	80200cfe <mappages+0x44>
      panic("remap");
    80200cec:	00008517          	auipc	a0,0x8
    80200cf0:	72c50513          	addi	a0,a0,1836 # 80209418 <etext+0x418>
    80200cf4:	fffff097          	auipc	ra,0xfffff
    80200cf8:	452080e7          	jalr	1106(ra) # 80200146 <panic>
    a += PGSIZE;
    80200cfc:	995e                	add	s2,s2,s7
  for(;;){
    80200cfe:	012a04b3          	add	s1,s4,s2
    if((pte = walk(pagetable, a, 1)) == NULL)
    80200d02:	4605                	li	a2,1
    80200d04:	85ca                	mv	a1,s2
    80200d06:	8556                	mv	a0,s5
    80200d08:	00000097          	auipc	ra,0x0
    80200d0c:	e50080e7          	jalr	-432(ra) # 80200b58 <walk>
    80200d10:	cd19                	beqz	a0,80200d2e <mappages+0x74>
    if(*pte & PTE_V)
    80200d12:	611c                	ld	a5,0(a0)
    80200d14:	8b85                	andi	a5,a5,1
    80200d16:	fbf9                	bnez	a5,80200cec <mappages+0x32>
    *pte = PA2PTE(pa) | perm | PTE_V;
    80200d18:	80b1                	srli	s1,s1,0xc
    80200d1a:	04aa                	slli	s1,s1,0xa
    80200d1c:	0164e4b3          	or	s1,s1,s6
    80200d20:	0014e493          	ori	s1,s1,1
    80200d24:	e104                	sd	s1,0(a0)
    if(a == last)
    80200d26:	fd391be3          	bne	s2,s3,80200cfc <mappages+0x42>
    pa += PGSIZE;
  }
  return 0;
    80200d2a:	4501                	li	a0,0
    80200d2c:	a011                	j	80200d30 <mappages+0x76>
      return -1;
    80200d2e:	557d                	li	a0,-1
}
    80200d30:	60a6                	ld	ra,72(sp)
    80200d32:	6406                	ld	s0,64(sp)
    80200d34:	74e2                	ld	s1,56(sp)
    80200d36:	7942                	ld	s2,48(sp)
    80200d38:	79a2                	ld	s3,40(sp)
    80200d3a:	7a02                	ld	s4,32(sp)
    80200d3c:	6ae2                	ld	s5,24(sp)
    80200d3e:	6b42                	ld	s6,16(sp)
    80200d40:	6ba2                	ld	s7,8(sp)
    80200d42:	6161                	addi	sp,sp,80
    80200d44:	8082                	ret

0000000080200d46 <kvmmap>:
{
    80200d46:	1141                	addi	sp,sp,-16
    80200d48:	e406                	sd	ra,8(sp)
    80200d4a:	e022                	sd	s0,0(sp)
    80200d4c:	0800                	addi	s0,sp,16
  if(mappages(kernel_pagetable, va, sz, pa, perm) != 0)
    80200d4e:	8736                	mv	a4,a3
    80200d50:	86ae                	mv	a3,a1
    80200d52:	85aa                	mv	a1,a0
    80200d54:	00012797          	auipc	a5,0x12
    80200d58:	30478793          	addi	a5,a5,772 # 80213058 <kernel_pagetable>
    80200d5c:	6388                	ld	a0,0(a5)
    80200d5e:	00000097          	auipc	ra,0x0
    80200d62:	f5c080e7          	jalr	-164(ra) # 80200cba <mappages>
    80200d66:	e509                	bnez	a0,80200d70 <kvmmap+0x2a>
}
    80200d68:	60a2                	ld	ra,8(sp)
    80200d6a:	6402                	ld	s0,0(sp)
    80200d6c:	0141                	addi	sp,sp,16
    80200d6e:	8082                	ret
    panic("kvmmap");
    80200d70:	00008517          	auipc	a0,0x8
    80200d74:	6b050513          	addi	a0,a0,1712 # 80209420 <etext+0x420>
    80200d78:	fffff097          	auipc	ra,0xfffff
    80200d7c:	3ce080e7          	jalr	974(ra) # 80200146 <panic>

0000000080200d80 <kvminit>:
{
    80200d80:	1101                	addi	sp,sp,-32
    80200d82:	ec06                	sd	ra,24(sp)
    80200d84:	e822                	sd	s0,16(sp)
    80200d86:	e426                	sd	s1,8(sp)
    80200d88:	1000                	addi	s0,sp,32
  kernel_pagetable = (pagetable_t) kalloc();
    80200d8a:	fffff097          	auipc	ra,0xfffff
    80200d8e:	7e0080e7          	jalr	2016(ra) # 8020056a <kalloc>
    80200d92:	00012797          	auipc	a5,0x12
    80200d96:	2ca7b323          	sd	a0,710(a5) # 80213058 <kernel_pagetable>
  memset(kernel_pagetable, 0, PGSIZE);
    80200d9a:	6605                	lui	a2,0x1
    80200d9c:	4581                	li	a1,0
    80200d9e:	00000097          	auipc	ra,0x0
    80200da2:	9d6080e7          	jalr	-1578(ra) # 80200774 <memset>
  kvmmap(UART_V, UART, PGSIZE, PTE_R | PTE_W);
    80200da6:	4699                	li	a3,6
    80200da8:	6605                	lui	a2,0x1
    80200daa:	100005b7          	lui	a1,0x10000
    80200dae:	3f100513          	li	a0,1009
    80200db2:	0572                	slli	a0,a0,0x1c
    80200db4:	00000097          	auipc	ra,0x0
    80200db8:	f92080e7          	jalr	-110(ra) # 80200d46 <kvmmap>
  kvmmap(VIRTIO0_V, VIRTIO0, PGSIZE, PTE_R | PTE_W);
    80200dbc:	4699                	li	a3,6
    80200dbe:	6605                	lui	a2,0x1
    80200dc0:	100015b7          	lui	a1,0x10001
    80200dc4:	03f10537          	lui	a0,0x3f10
    80200dc8:	0505                	addi	a0,a0,1
    80200dca:	0532                	slli	a0,a0,0xc
    80200dcc:	00000097          	auipc	ra,0x0
    80200dd0:	f7a080e7          	jalr	-134(ra) # 80200d46 <kvmmap>
  kvmmap(CLINT_V, CLINT, 0x10000, PTE_R | PTE_W);
    80200dd4:	4699                	li	a3,6
    80200dd6:	6641                	lui	a2,0x10
    80200dd8:	020005b7          	lui	a1,0x2000
    80200ddc:	01f81537          	lui	a0,0x1f81
    80200de0:	0536                	slli	a0,a0,0xd
    80200de2:	00000097          	auipc	ra,0x0
    80200de6:	f64080e7          	jalr	-156(ra) # 80200d46 <kvmmap>
  kvmmap(PLIC_V, PLIC, 0x4000, PTE_R | PTE_W);
    80200dea:	4699                	li	a3,6
    80200dec:	6611                	lui	a2,0x4
    80200dee:	0c0005b7          	lui	a1,0xc000
    80200df2:	00fc3537          	lui	a0,0xfc3
    80200df6:	053a                	slli	a0,a0,0xe
    80200df8:	00000097          	auipc	ra,0x0
    80200dfc:	f4e080e7          	jalr	-178(ra) # 80200d46 <kvmmap>
  kvmmap(PLIC_V + 0x200000, PLIC + 0x200000, 0x4000, PTE_R | PTE_W);
    80200e00:	4699                	li	a3,6
    80200e02:	6611                	lui	a2,0x4
    80200e04:	0c2005b7          	lui	a1,0xc200
    80200e08:	1f861537          	lui	a0,0x1f861
    80200e0c:	0526                	slli	a0,a0,0x9
    80200e0e:	00000097          	auipc	ra,0x0
    80200e12:	f38080e7          	jalr	-200(ra) # 80200d46 <kvmmap>
  kvmmap(KERNBASE, KERNBASE, (uint64)etext - KERNBASE, PTE_R | PTE_X);
    80200e16:	00009497          	auipc	s1,0x9
    80200e1a:	4424b483          	ld	s1,1090(s1) # 8020a258 <_GLOBAL_OFFSET_TABLE_+0x20>
    80200e1e:	46a9                	li	a3,10
    80200e20:	bff00613          	li	a2,-1025
    80200e24:	0656                	slli	a2,a2,0x15
    80200e26:	9626                	add	a2,a2,s1
    80200e28:	40100593          	li	a1,1025
    80200e2c:	05d6                	slli	a1,a1,0x15
    80200e2e:	852e                	mv	a0,a1
    80200e30:	00000097          	auipc	ra,0x0
    80200e34:	f16080e7          	jalr	-234(ra) # 80200d46 <kvmmap>
  kvmmap((uint64)etext, (uint64)etext, PHYSTOP - (uint64)etext, PTE_R | PTE_W);
    80200e38:	4699                	li	a3,6
    80200e3a:	40300613          	li	a2,1027
    80200e3e:	0656                	slli	a2,a2,0x15
    80200e40:	8e05                	sub	a2,a2,s1
    80200e42:	85a6                	mv	a1,s1
    80200e44:	8526                	mv	a0,s1
    80200e46:	00000097          	auipc	ra,0x0
    80200e4a:	f00080e7          	jalr	-256(ra) # 80200d46 <kvmmap>
  kvmmap(TRAMPOLINE, (uint64)trampoline, PGSIZE, PTE_R | PTE_X);
    80200e4e:	46a9                	li	a3,10
    80200e50:	6605                	lui	a2,0x1
    80200e52:	00009597          	auipc	a1,0x9
    80200e56:	3ee5b583          	ld	a1,1006(a1) # 8020a240 <_GLOBAL_OFFSET_TABLE_+0x8>
    80200e5a:	04000537          	lui	a0,0x4000
    80200e5e:	157d                	addi	a0,a0,-1
    80200e60:	0532                	slli	a0,a0,0xc
    80200e62:	00000097          	auipc	ra,0x0
    80200e66:	ee4080e7          	jalr	-284(ra) # 80200d46 <kvmmap>
}
    80200e6a:	60e2                	ld	ra,24(sp)
    80200e6c:	6442                	ld	s0,16(sp)
    80200e6e:	64a2                	ld	s1,8(sp)
    80200e70:	6105                	addi	sp,sp,32
    80200e72:	8082                	ret

0000000080200e74 <vmunmap>:
// Remove npages of mappings starting from va. va must be
// page-aligned. The mappings must exist.
// Optionally free the physical memory.
void
vmunmap(pagetable_t pagetable, uint64 va, uint64 npages, int do_free)
{
    80200e74:	715d                	addi	sp,sp,-80
    80200e76:	e486                	sd	ra,72(sp)
    80200e78:	e0a2                	sd	s0,64(sp)
    80200e7a:	fc26                	sd	s1,56(sp)
    80200e7c:	f84a                	sd	s2,48(sp)
    80200e7e:	f44e                	sd	s3,40(sp)
    80200e80:	f052                	sd	s4,32(sp)
    80200e82:	ec56                	sd	s5,24(sp)
    80200e84:	e85a                	sd	s6,16(sp)
    80200e86:	e45e                	sd	s7,8(sp)
    80200e88:	0880                	addi	s0,sp,80
  uint64 a;
  pte_t *pte;

  if((va % PGSIZE) != 0)
    80200e8a:	6785                	lui	a5,0x1
    80200e8c:	17fd                	addi	a5,a5,-1
    80200e8e:	8fed                	and	a5,a5,a1
    80200e90:	e795                	bnez	a5,80200ebc <vmunmap+0x48>
    80200e92:	8a2a                	mv	s4,a0
    80200e94:	84ae                	mv	s1,a1
    80200e96:	8ab6                	mv	s5,a3
    panic("vmunmap: not aligned");

  for(a = va; a < va + npages*PGSIZE; a += PGSIZE){
    80200e98:	0632                	slli	a2,a2,0xc
    80200e9a:	00b609b3          	add	s3,a2,a1
    if((pte = walk(pagetable, a, 0)) == 0)
      panic("vmunmap: walk");
    if((*pte & PTE_V) == 0)
      panic("vmunmap: not mapped");
    if(PTE_FLAGS(*pte) == PTE_V)
    80200e9e:	4b85                	li	s7,1
  for(a = va; a < va + npages*PGSIZE; a += PGSIZE){
    80200ea0:	6b05                	lui	s6,0x1
    80200ea2:	0735e863          	bltu	a1,s3,80200f12 <vmunmap+0x9e>
      uint64 pa = PTE2PA(*pte);
      kfree((void*)pa);
    }
    *pte = 0;
  }
}
    80200ea6:	60a6                	ld	ra,72(sp)
    80200ea8:	6406                	ld	s0,64(sp)
    80200eaa:	74e2                	ld	s1,56(sp)
    80200eac:	7942                	ld	s2,48(sp)
    80200eae:	79a2                	ld	s3,40(sp)
    80200eb0:	7a02                	ld	s4,32(sp)
    80200eb2:	6ae2                	ld	s5,24(sp)
    80200eb4:	6b42                	ld	s6,16(sp)
    80200eb6:	6ba2                	ld	s7,8(sp)
    80200eb8:	6161                	addi	sp,sp,80
    80200eba:	8082                	ret
    panic("vmunmap: not aligned");
    80200ebc:	00008517          	auipc	a0,0x8
    80200ec0:	56c50513          	addi	a0,a0,1388 # 80209428 <etext+0x428>
    80200ec4:	fffff097          	auipc	ra,0xfffff
    80200ec8:	282080e7          	jalr	642(ra) # 80200146 <panic>
      panic("vmunmap: walk");
    80200ecc:	00008517          	auipc	a0,0x8
    80200ed0:	57450513          	addi	a0,a0,1396 # 80209440 <etext+0x440>
    80200ed4:	fffff097          	auipc	ra,0xfffff
    80200ed8:	272080e7          	jalr	626(ra) # 80200146 <panic>
      panic("vmunmap: not mapped");
    80200edc:	00008517          	auipc	a0,0x8
    80200ee0:	57450513          	addi	a0,a0,1396 # 80209450 <etext+0x450>
    80200ee4:	fffff097          	auipc	ra,0xfffff
    80200ee8:	262080e7          	jalr	610(ra) # 80200146 <panic>
      panic("vmunmap: not a leaf");
    80200eec:	00008517          	auipc	a0,0x8
    80200ef0:	57c50513          	addi	a0,a0,1404 # 80209468 <etext+0x468>
    80200ef4:	fffff097          	auipc	ra,0xfffff
    80200ef8:	252080e7          	jalr	594(ra) # 80200146 <panic>
      uint64 pa = PTE2PA(*pte);
    80200efc:	8129                	srli	a0,a0,0xa
      kfree((void*)pa);
    80200efe:	0532                	slli	a0,a0,0xc
    80200f00:	fffff097          	auipc	ra,0xfffff
    80200f04:	54e080e7          	jalr	1358(ra) # 8020044e <kfree>
    *pte = 0;
    80200f08:	00093023          	sd	zero,0(s2)
  for(a = va; a < va + npages*PGSIZE; a += PGSIZE){
    80200f0c:	94da                	add	s1,s1,s6
    80200f0e:	f934fce3          	bleu	s3,s1,80200ea6 <vmunmap+0x32>
    if((pte = walk(pagetable, a, 0)) == 0)
    80200f12:	4601                	li	a2,0
    80200f14:	85a6                	mv	a1,s1
    80200f16:	8552                	mv	a0,s4
    80200f18:	00000097          	auipc	ra,0x0
    80200f1c:	c40080e7          	jalr	-960(ra) # 80200b58 <walk>
    80200f20:	892a                	mv	s2,a0
    80200f22:	d54d                	beqz	a0,80200ecc <vmunmap+0x58>
    if((*pte & PTE_V) == 0)
    80200f24:	6108                	ld	a0,0(a0)
    80200f26:	00157793          	andi	a5,a0,1
    80200f2a:	dbcd                	beqz	a5,80200edc <vmunmap+0x68>
    if(PTE_FLAGS(*pte) == PTE_V)
    80200f2c:	3ff57793          	andi	a5,a0,1023
    80200f30:	fb778ee3          	beq	a5,s7,80200eec <vmunmap+0x78>
    if(do_free){
    80200f34:	fc0a8ae3          	beqz	s5,80200f08 <vmunmap+0x94>
    80200f38:	b7d1                	j	80200efc <vmunmap+0x88>

0000000080200f3a <uvmcreate>:

// create an empty user page table.
// returns 0 if out of memory.
pagetable_t
uvmcreate()
{
    80200f3a:	1101                	addi	sp,sp,-32
    80200f3c:	ec06                	sd	ra,24(sp)
    80200f3e:	e822                	sd	s0,16(sp)
    80200f40:	e426                	sd	s1,8(sp)
    80200f42:	1000                	addi	s0,sp,32
  pagetable_t pagetable;
  pagetable = (pagetable_t) kalloc();
    80200f44:	fffff097          	auipc	ra,0xfffff
    80200f48:	626080e7          	jalr	1574(ra) # 8020056a <kalloc>
    80200f4c:	84aa                	mv	s1,a0
  if(pagetable == NULL)
    80200f4e:	c519                	beqz	a0,80200f5c <uvmcreate+0x22>
    return NULL;
  memset(pagetable, 0, PGSIZE);
    80200f50:	6605                	lui	a2,0x1
    80200f52:	4581                	li	a1,0
    80200f54:	00000097          	auipc	ra,0x0
    80200f58:	820080e7          	jalr	-2016(ra) # 80200774 <memset>
  return pagetable;
}
    80200f5c:	8526                	mv	a0,s1
    80200f5e:	60e2                	ld	ra,24(sp)
    80200f60:	6442                	ld	s0,16(sp)
    80200f62:	64a2                	ld	s1,8(sp)
    80200f64:	6105                	addi	sp,sp,32
    80200f66:	8082                	ret

0000000080200f68 <uvminit>:
// Load the user initcode into address 0 of pagetable,
// for the very first process.
// sz must be less than a page.
void
uvminit(pagetable_t pagetable, pagetable_t kpagetable, uchar *src, uint sz)
{
    80200f68:	7139                	addi	sp,sp,-64
    80200f6a:	fc06                	sd	ra,56(sp)
    80200f6c:	f822                	sd	s0,48(sp)
    80200f6e:	f426                	sd	s1,40(sp)
    80200f70:	f04a                	sd	s2,32(sp)
    80200f72:	ec4e                	sd	s3,24(sp)
    80200f74:	e852                	sd	s4,16(sp)
    80200f76:	e456                	sd	s5,8(sp)
    80200f78:	0080                	addi	s0,sp,64
  char *mem;

  if(sz >= PGSIZE)
    80200f7a:	6785                	lui	a5,0x1
    80200f7c:	06f6f363          	bleu	a5,a3,80200fe2 <uvminit+0x7a>
    80200f80:	8aaa                	mv	s5,a0
    80200f82:	8a2e                	mv	s4,a1
    80200f84:	89b2                	mv	s3,a2
    80200f86:	8936                	mv	s2,a3
    panic("inituvm: more than a page");
  mem = kalloc();
    80200f88:	fffff097          	auipc	ra,0xfffff
    80200f8c:	5e2080e7          	jalr	1506(ra) # 8020056a <kalloc>
    80200f90:	84aa                	mv	s1,a0
  // printf("[uvminit]kalloc: %p\n", mem);
  memset(mem, 0, PGSIZE);
    80200f92:	6605                	lui	a2,0x1
    80200f94:	4581                	li	a1,0
    80200f96:	fffff097          	auipc	ra,0xfffff
    80200f9a:	7de080e7          	jalr	2014(ra) # 80200774 <memset>
  mappages(pagetable, 0, PGSIZE, (uint64)mem, PTE_W|PTE_R|PTE_X|PTE_U);
    80200f9e:	4779                	li	a4,30
    80200fa0:	86a6                	mv	a3,s1
    80200fa2:	6605                	lui	a2,0x1
    80200fa4:	4581                	li	a1,0
    80200fa6:	8556                	mv	a0,s5
    80200fa8:	00000097          	auipc	ra,0x0
    80200fac:	d12080e7          	jalr	-750(ra) # 80200cba <mappages>
  mappages(kpagetable, 0, PGSIZE, (uint64)mem, PTE_W|PTE_R|PTE_X);
    80200fb0:	4739                	li	a4,14
    80200fb2:	86a6                	mv	a3,s1
    80200fb4:	6605                	lui	a2,0x1
    80200fb6:	4581                	li	a1,0
    80200fb8:	8552                	mv	a0,s4
    80200fba:	00000097          	auipc	ra,0x0
    80200fbe:	d00080e7          	jalr	-768(ra) # 80200cba <mappages>
  memmove(mem, src, sz);
    80200fc2:	864a                	mv	a2,s2
    80200fc4:	85ce                	mv	a1,s3
    80200fc6:	8526                	mv	a0,s1
    80200fc8:	00000097          	auipc	ra,0x0
    80200fcc:	818080e7          	jalr	-2024(ra) # 802007e0 <memmove>
  // for (int i = 0; i < sz; i ++) {
  //   printf("[uvminit]mem: %p, %x\n", mem + i, mem[i]);
  // }
}
    80200fd0:	70e2                	ld	ra,56(sp)
    80200fd2:	7442                	ld	s0,48(sp)
    80200fd4:	74a2                	ld	s1,40(sp)
    80200fd6:	7902                	ld	s2,32(sp)
    80200fd8:	69e2                	ld	s3,24(sp)
    80200fda:	6a42                	ld	s4,16(sp)
    80200fdc:	6aa2                	ld	s5,8(sp)
    80200fde:	6121                	addi	sp,sp,64
    80200fe0:	8082                	ret
    panic("inituvm: more than a page");
    80200fe2:	00008517          	auipc	a0,0x8
    80200fe6:	49e50513          	addi	a0,a0,1182 # 80209480 <etext+0x480>
    80200fea:	fffff097          	auipc	ra,0xfffff
    80200fee:	15c080e7          	jalr	348(ra) # 80200146 <panic>

0000000080200ff2 <uvmdealloc>:
// newsz.  oldsz and newsz need not be page-aligned, nor does newsz
// need to be less than oldsz.  oldsz can be larger than the actual
// process size.  Returns the new process size.
uint64
uvmdealloc(pagetable_t pagetable, pagetable_t kpagetable, uint64 oldsz, uint64 newsz)
{
    80200ff2:	7179                	addi	sp,sp,-48
    80200ff4:	f406                	sd	ra,40(sp)
    80200ff6:	f022                	sd	s0,32(sp)
    80200ff8:	ec26                	sd	s1,24(sp)
    80200ffa:	e84a                	sd	s2,16(sp)
    80200ffc:	e44e                	sd	s3,8(sp)
    80200ffe:	e052                	sd	s4,0(sp)
    80201000:	1800                	addi	s0,sp,48
  if(newsz >= oldsz)
    return oldsz;
    80201002:	8932                	mv	s2,a2
  if(newsz >= oldsz)
    80201004:	02c6f063          	bleu	a2,a3,80201024 <uvmdealloc+0x32>
    80201008:	8a2a                	mv	s4,a0
    8020100a:	852e                	mv	a0,a1
    8020100c:	8936                	mv	s2,a3

  if(PGROUNDUP(newsz) < PGROUNDUP(oldsz)){
    8020100e:	6785                	lui	a5,0x1
    80201010:	17fd                	addi	a5,a5,-1
    80201012:	00f689b3          	add	s3,a3,a5
    80201016:	777d                	lui	a4,0xfffff
    80201018:	00e9f9b3          	and	s3,s3,a4
    8020101c:	963e                	add	a2,a2,a5
    8020101e:	8e79                	and	a2,a2,a4
    80201020:	00c9eb63          	bltu	s3,a2,80201036 <uvmdealloc+0x44>
    vmunmap(kpagetable, PGROUNDUP(newsz), npages, 0);
    vmunmap(pagetable, PGROUNDUP(newsz), npages, 1);
  }

  return newsz;
}
    80201024:	854a                	mv	a0,s2
    80201026:	70a2                	ld	ra,40(sp)
    80201028:	7402                	ld	s0,32(sp)
    8020102a:	64e2                	ld	s1,24(sp)
    8020102c:	6942                	ld	s2,16(sp)
    8020102e:	69a2                	ld	s3,8(sp)
    80201030:	6a02                	ld	s4,0(sp)
    80201032:	6145                	addi	sp,sp,48
    80201034:	8082                	ret
    int npages = (PGROUNDUP(oldsz) - PGROUNDUP(newsz)) / PGSIZE;
    80201036:	413604b3          	sub	s1,a2,s3
    8020103a:	80b1                	srli	s1,s1,0xc
    vmunmap(kpagetable, PGROUNDUP(newsz), npages, 0);
    8020103c:	2481                	sext.w	s1,s1
    8020103e:	4681                	li	a3,0
    80201040:	8626                	mv	a2,s1
    80201042:	85ce                	mv	a1,s3
    80201044:	00000097          	auipc	ra,0x0
    80201048:	e30080e7          	jalr	-464(ra) # 80200e74 <vmunmap>
    vmunmap(pagetable, PGROUNDUP(newsz), npages, 1);
    8020104c:	4685                	li	a3,1
    8020104e:	8626                	mv	a2,s1
    80201050:	85ce                	mv	a1,s3
    80201052:	8552                	mv	a0,s4
    80201054:	00000097          	auipc	ra,0x0
    80201058:	e20080e7          	jalr	-480(ra) # 80200e74 <vmunmap>
    8020105c:	b7e1                	j	80201024 <uvmdealloc+0x32>

000000008020105e <uvmalloc>:
  if(newsz < oldsz)
    8020105e:	0ec6e763          	bltu	a3,a2,8020114c <uvmalloc+0xee>
{
    80201062:	7139                	addi	sp,sp,-64
    80201064:	fc06                	sd	ra,56(sp)
    80201066:	f822                	sd	s0,48(sp)
    80201068:	f426                	sd	s1,40(sp)
    8020106a:	f04a                	sd	s2,32(sp)
    8020106c:	ec4e                	sd	s3,24(sp)
    8020106e:	e852                	sd	s4,16(sp)
    80201070:	e456                	sd	s5,8(sp)
    80201072:	e05a                	sd	s6,0(sp)
    80201074:	0080                	addi	s0,sp,64
  oldsz = PGROUNDUP(oldsz);
    80201076:	6a05                	lui	s4,0x1
    80201078:	1a7d                	addi	s4,s4,-1
    8020107a:	9652                	add	a2,a2,s4
    8020107c:	7a7d                	lui	s4,0xfffff
    8020107e:	01467a33          	and	s4,a2,s4
  for(a = oldsz; a < newsz; a += PGSIZE){
    80201082:	0cda7763          	bleu	a3,s4,80201150 <uvmalloc+0xf2>
    80201086:	89b6                	mv	s3,a3
    80201088:	8b2e                	mv	s6,a1
    8020108a:	8aaa                	mv	s5,a0
    8020108c:	84d2                	mv	s1,s4
    mem = kalloc();
    8020108e:	fffff097          	auipc	ra,0xfffff
    80201092:	4dc080e7          	jalr	1244(ra) # 8020056a <kalloc>
    80201096:	892a                	mv	s2,a0
    if(mem == NULL){
    80201098:	c129                	beqz	a0,802010da <uvmalloc+0x7c>
    memset(mem, 0, PGSIZE);
    8020109a:	6605                	lui	a2,0x1
    8020109c:	4581                	li	a1,0
    8020109e:	fffff097          	auipc	ra,0xfffff
    802010a2:	6d6080e7          	jalr	1750(ra) # 80200774 <memset>
    if (mappages(pagetable, a, PGSIZE, (uint64)mem, PTE_W|PTE_X|PTE_R|PTE_U) != 0) {
    802010a6:	4779                	li	a4,30
    802010a8:	86ca                	mv	a3,s2
    802010aa:	6605                	lui	a2,0x1
    802010ac:	85a6                	mv	a1,s1
    802010ae:	8556                	mv	a0,s5
    802010b0:	00000097          	auipc	ra,0x0
    802010b4:	c0a080e7          	jalr	-1014(ra) # 80200cba <mappages>
    802010b8:	e521                	bnez	a0,80201100 <uvmalloc+0xa2>
    if (mappages(kpagetable, a, PGSIZE, (uint64)mem, PTE_W|PTE_X|PTE_R) != 0){
    802010ba:	4739                	li	a4,14
    802010bc:	86ca                	mv	a3,s2
    802010be:	6605                	lui	a2,0x1
    802010c0:	85a6                	mv	a1,s1
    802010c2:	855a                	mv	a0,s6
    802010c4:	00000097          	auipc	ra,0x0
    802010c8:	bf6080e7          	jalr	-1034(ra) # 80200cba <mappages>
    802010cc:	e929                	bnez	a0,8020111e <uvmalloc+0xc0>
  for(a = oldsz; a < newsz; a += PGSIZE){
    802010ce:	6785                	lui	a5,0x1
    802010d0:	94be                	add	s1,s1,a5
    802010d2:	fb34eee3          	bltu	s1,s3,8020108e <uvmalloc+0x30>
  return newsz;
    802010d6:	854e                	mv	a0,s3
    802010d8:	a811                	j	802010ec <uvmalloc+0x8e>
      uvmdealloc(pagetable, kpagetable, a, oldsz);
    802010da:	86d2                	mv	a3,s4
    802010dc:	8626                	mv	a2,s1
    802010de:	85da                	mv	a1,s6
    802010e0:	8556                	mv	a0,s5
    802010e2:	00000097          	auipc	ra,0x0
    802010e6:	f10080e7          	jalr	-240(ra) # 80200ff2 <uvmdealloc>
      return 0;
    802010ea:	4501                	li	a0,0
}
    802010ec:	70e2                	ld	ra,56(sp)
    802010ee:	7442                	ld	s0,48(sp)
    802010f0:	74a2                	ld	s1,40(sp)
    802010f2:	7902                	ld	s2,32(sp)
    802010f4:	69e2                	ld	s3,24(sp)
    802010f6:	6a42                	ld	s4,16(sp)
    802010f8:	6aa2                	ld	s5,8(sp)
    802010fa:	6b02                	ld	s6,0(sp)
    802010fc:	6121                	addi	sp,sp,64
    802010fe:	8082                	ret
      kfree(mem);
    80201100:	854a                	mv	a0,s2
    80201102:	fffff097          	auipc	ra,0xfffff
    80201106:	34c080e7          	jalr	844(ra) # 8020044e <kfree>
      uvmdealloc(pagetable, kpagetable, a, oldsz);
    8020110a:	86d2                	mv	a3,s4
    8020110c:	8626                	mv	a2,s1
    8020110e:	85da                	mv	a1,s6
    80201110:	8556                	mv	a0,s5
    80201112:	00000097          	auipc	ra,0x0
    80201116:	ee0080e7          	jalr	-288(ra) # 80200ff2 <uvmdealloc>
      return 0;
    8020111a:	4501                	li	a0,0
    8020111c:	bfc1                	j	802010ec <uvmalloc+0x8e>
      int npages = (a - oldsz) / PGSIZE;
    8020111e:	414484b3          	sub	s1,s1,s4
    80201122:	80b1                	srli	s1,s1,0xc
    80201124:	2481                	sext.w	s1,s1
      vmunmap(pagetable, oldsz, npages + 1, 1);   // plus the page allocated above.
    80201126:	4685                	li	a3,1
    80201128:	0014861b          	addiw	a2,s1,1
    8020112c:	85d2                	mv	a1,s4
    8020112e:	8556                	mv	a0,s5
    80201130:	00000097          	auipc	ra,0x0
    80201134:	d44080e7          	jalr	-700(ra) # 80200e74 <vmunmap>
      vmunmap(kpagetable, oldsz, npages, 0);
    80201138:	4681                	li	a3,0
    8020113a:	8626                	mv	a2,s1
    8020113c:	85d2                	mv	a1,s4
    8020113e:	855a                	mv	a0,s6
    80201140:	00000097          	auipc	ra,0x0
    80201144:	d34080e7          	jalr	-716(ra) # 80200e74 <vmunmap>
      return 0;
    80201148:	4501                	li	a0,0
    8020114a:	b74d                	j	802010ec <uvmalloc+0x8e>
    return oldsz;
    8020114c:	8532                	mv	a0,a2
}
    8020114e:	8082                	ret
  return newsz;
    80201150:	8536                	mv	a0,a3
    80201152:	bf69                	j	802010ec <uvmalloc+0x8e>

0000000080201154 <freewalk>:

// Recursively free page-table pages.
// All leaf mappings must already have been removed.
void
freewalk(pagetable_t pagetable)
{
    80201154:	7179                	addi	sp,sp,-48
    80201156:	f406                	sd	ra,40(sp)
    80201158:	f022                	sd	s0,32(sp)
    8020115a:	ec26                	sd	s1,24(sp)
    8020115c:	e84a                	sd	s2,16(sp)
    8020115e:	e44e                	sd	s3,8(sp)
    80201160:	e052                	sd	s4,0(sp)
    80201162:	1800                	addi	s0,sp,48
    80201164:	8a2a                	mv	s4,a0
  // there are 2^9 = 512 PTEs in a page table.
  for(int i = 0; i < 512; i++){
    80201166:	84aa                	mv	s1,a0
    80201168:	6905                	lui	s2,0x1
    8020116a:	992a                	add	s2,s2,a0
    pte_t pte = pagetable[i];
    if((pte & PTE_V) && (pte & (PTE_R|PTE_W|PTE_X)) == 0){
    8020116c:	4985                	li	s3,1
    8020116e:	a821                	j	80201186 <freewalk+0x32>
      // this PTE points to a lower-level page table.
      uint64 child = PTE2PA(pte);
    80201170:	8129                	srli	a0,a0,0xa
      freewalk((pagetable_t)child);
    80201172:	0532                	slli	a0,a0,0xc
    80201174:	00000097          	auipc	ra,0x0
    80201178:	fe0080e7          	jalr	-32(ra) # 80201154 <freewalk>
      pagetable[i] = 0;
    8020117c:	0004b023          	sd	zero,0(s1)
  for(int i = 0; i < 512; i++){
    80201180:	04a1                	addi	s1,s1,8
    80201182:	03248163          	beq	s1,s2,802011a4 <freewalk+0x50>
    pte_t pte = pagetable[i];
    80201186:	6088                	ld	a0,0(s1)
    if((pte & PTE_V) && (pte & (PTE_R|PTE_W|PTE_X)) == 0){
    80201188:	00f57793          	andi	a5,a0,15
    8020118c:	ff3782e3          	beq	a5,s3,80201170 <freewalk+0x1c>
    } else if(pte & PTE_V){
    80201190:	8905                	andi	a0,a0,1
    80201192:	d57d                	beqz	a0,80201180 <freewalk+0x2c>
      panic("freewalk: leaf");
    80201194:	00008517          	auipc	a0,0x8
    80201198:	30c50513          	addi	a0,a0,780 # 802094a0 <etext+0x4a0>
    8020119c:	fffff097          	auipc	ra,0xfffff
    802011a0:	faa080e7          	jalr	-86(ra) # 80200146 <panic>
    }
  }
  kfree((void*)pagetable);
    802011a4:	8552                	mv	a0,s4
    802011a6:	fffff097          	auipc	ra,0xfffff
    802011aa:	2a8080e7          	jalr	680(ra) # 8020044e <kfree>
}
    802011ae:	70a2                	ld	ra,40(sp)
    802011b0:	7402                	ld	s0,32(sp)
    802011b2:	64e2                	ld	s1,24(sp)
    802011b4:	6942                	ld	s2,16(sp)
    802011b6:	69a2                	ld	s3,8(sp)
    802011b8:	6a02                	ld	s4,0(sp)
    802011ba:	6145                	addi	sp,sp,48
    802011bc:	8082                	ret

00000000802011be <uvmfree>:

// Free user memory pages,
// then free page-table pages.
void
uvmfree(pagetable_t pagetable, uint64 sz)
{
    802011be:	1101                	addi	sp,sp,-32
    802011c0:	ec06                	sd	ra,24(sp)
    802011c2:	e822                	sd	s0,16(sp)
    802011c4:	e426                	sd	s1,8(sp)
    802011c6:	1000                	addi	s0,sp,32
    802011c8:	84aa                	mv	s1,a0
  if(sz > 0)
    802011ca:	e999                	bnez	a1,802011e0 <uvmfree+0x22>
    vmunmap(pagetable, 0, PGROUNDUP(sz)/PGSIZE, 1);
  freewalk(pagetable);
    802011cc:	8526                	mv	a0,s1
    802011ce:	00000097          	auipc	ra,0x0
    802011d2:	f86080e7          	jalr	-122(ra) # 80201154 <freewalk>
}
    802011d6:	60e2                	ld	ra,24(sp)
    802011d8:	6442                	ld	s0,16(sp)
    802011da:	64a2                	ld	s1,8(sp)
    802011dc:	6105                	addi	sp,sp,32
    802011de:	8082                	ret
    vmunmap(pagetable, 0, PGROUNDUP(sz)/PGSIZE, 1);
    802011e0:	6605                	lui	a2,0x1
    802011e2:	167d                	addi	a2,a2,-1
    802011e4:	962e                	add	a2,a2,a1
    802011e6:	4685                	li	a3,1
    802011e8:	8231                	srli	a2,a2,0xc
    802011ea:	4581                	li	a1,0
    802011ec:	00000097          	auipc	ra,0x0
    802011f0:	c88080e7          	jalr	-888(ra) # 80200e74 <vmunmap>
    802011f4:	bfe1                	j	802011cc <uvmfree+0xe>

00000000802011f6 <uvmcopy>:
  pte_t *pte;
  uint64 pa, i = 0, ki = 0;
  uint flags;
  char *mem;

  while (i < sz){
    802011f6:	10068563          	beqz	a3,80201300 <uvmcopy+0x10a>
{
    802011fa:	715d                	addi	sp,sp,-80
    802011fc:	e486                	sd	ra,72(sp)
    802011fe:	e0a2                	sd	s0,64(sp)
    80201200:	fc26                	sd	s1,56(sp)
    80201202:	f84a                	sd	s2,48(sp)
    80201204:	f44e                	sd	s3,40(sp)
    80201206:	f052                	sd	s4,32(sp)
    80201208:	ec56                	sd	s5,24(sp)
    8020120a:	e85a                	sd	s6,16(sp)
    8020120c:	e45e                	sd	s7,8(sp)
    8020120e:	e062                	sd	s8,0(sp)
    80201210:	0880                	addi	s0,sp,80
    80201212:	8b36                	mv	s6,a3
    80201214:	8bb2                	mv	s7,a2
    80201216:	8aae                	mv	s5,a1
    80201218:	8c2a                	mv	s8,a0
  uint64 pa, i = 0, ki = 0;
    8020121a:	4901                	li	s2,0
    8020121c:	a011                	j	80201220 <uvmcopy+0x2a>
    memmove(mem, (char*)pa, PGSIZE);
    if(mappages(new, i, PGSIZE, (uint64)mem, flags) != 0) {
      kfree(mem);
      goto err;
    }
    i += PGSIZE;
    8020121e:	8952                	mv	s2,s4
    if((pte = walk(old, i, 0)) == NULL)
    80201220:	4601                	li	a2,0
    80201222:	85ca                	mv	a1,s2
    80201224:	8562                	mv	a0,s8
    80201226:	00000097          	auipc	ra,0x0
    8020122a:	932080e7          	jalr	-1742(ra) # 80200b58 <walk>
    8020122e:	c135                	beqz	a0,80201292 <uvmcopy+0x9c>
    if((*pte & PTE_V) == 0)
    80201230:	6118                	ld	a4,0(a0)
    80201232:	00177793          	andi	a5,a4,1
    80201236:	c7b5                	beqz	a5,802012a2 <uvmcopy+0xac>
    pa = PTE2PA(*pte);
    80201238:	00a75593          	srli	a1,a4,0xa
    8020123c:	00c59a13          	slli	s4,a1,0xc
    flags = PTE_FLAGS(*pte);
    80201240:	3ff77493          	andi	s1,a4,1023
    if((mem = kalloc()) == NULL)
    80201244:	fffff097          	auipc	ra,0xfffff
    80201248:	326080e7          	jalr	806(ra) # 8020056a <kalloc>
    8020124c:	89aa                	mv	s3,a0
    8020124e:	c92d                	beqz	a0,802012c0 <uvmcopy+0xca>
    memmove(mem, (char*)pa, PGSIZE);
    80201250:	6605                	lui	a2,0x1
    80201252:	85d2                	mv	a1,s4
    80201254:	fffff097          	auipc	ra,0xfffff
    80201258:	58c080e7          	jalr	1420(ra) # 802007e0 <memmove>
    if(mappages(new, i, PGSIZE, (uint64)mem, flags) != 0) {
    8020125c:	2481                	sext.w	s1,s1
    8020125e:	8726                	mv	a4,s1
    80201260:	86ce                	mv	a3,s3
    80201262:	6605                	lui	a2,0x1
    80201264:	85ca                	mv	a1,s2
    80201266:	8556                	mv	a0,s5
    80201268:	00000097          	auipc	ra,0x0
    8020126c:	a52080e7          	jalr	-1454(ra) # 80200cba <mappages>
    80201270:	e129                	bnez	a0,802012b2 <uvmcopy+0xbc>
    i += PGSIZE;
    80201272:	6a05                	lui	s4,0x1
    80201274:	9a4a                	add	s4,s4,s2
    if(mappages(knew, ki, PGSIZE, (uint64)mem, flags & ~PTE_U) != 0){
    80201276:	3ef4f713          	andi	a4,s1,1007
    8020127a:	86ce                	mv	a3,s3
    8020127c:	6605                	lui	a2,0x1
    8020127e:	85ca                	mv	a1,s2
    80201280:	855e                	mv	a0,s7
    80201282:	00000097          	auipc	ra,0x0
    80201286:	a38080e7          	jalr	-1480(ra) # 80200cba <mappages>
    8020128a:	ed05                	bnez	a0,802012c2 <uvmcopy+0xcc>
  while (i < sz){
    8020128c:	f96a69e3          	bltu	s4,s6,8020121e <uvmcopy+0x28>
    80201290:	a8a1                	j	802012e8 <uvmcopy+0xf2>
      panic("uvmcopy: pte should exist");
    80201292:	00008517          	auipc	a0,0x8
    80201296:	21e50513          	addi	a0,a0,542 # 802094b0 <etext+0x4b0>
    8020129a:	fffff097          	auipc	ra,0xfffff
    8020129e:	eac080e7          	jalr	-340(ra) # 80200146 <panic>
      panic("uvmcopy: page not present");
    802012a2:	00008517          	auipc	a0,0x8
    802012a6:	22e50513          	addi	a0,a0,558 # 802094d0 <etext+0x4d0>
    802012aa:	fffff097          	auipc	ra,0xfffff
    802012ae:	e9c080e7          	jalr	-356(ra) # 80200146 <panic>
      kfree(mem);
    802012b2:	854e                	mv	a0,s3
    802012b4:	fffff097          	auipc	ra,0xfffff
    802012b8:	19a080e7          	jalr	410(ra) # 8020044e <kfree>
      goto err;
    802012bc:	8a4a                	mv	s4,s2
    802012be:	a011                	j	802012c2 <uvmcopy+0xcc>
    802012c0:	8a4a                	mv	s4,s2
    ki += PGSIZE;
  }
  return 0;

 err:
  vmunmap(knew, 0, ki / PGSIZE, 0);
    802012c2:	4681                	li	a3,0
    802012c4:	00c95613          	srli	a2,s2,0xc
    802012c8:	4581                	li	a1,0
    802012ca:	855e                	mv	a0,s7
    802012cc:	00000097          	auipc	ra,0x0
    802012d0:	ba8080e7          	jalr	-1112(ra) # 80200e74 <vmunmap>
  vmunmap(new, 0, i / PGSIZE, 1);
    802012d4:	4685                	li	a3,1
    802012d6:	00ca5613          	srli	a2,s4,0xc
    802012da:	4581                	li	a1,0
    802012dc:	8556                	mv	a0,s5
    802012de:	00000097          	auipc	ra,0x0
    802012e2:	b96080e7          	jalr	-1130(ra) # 80200e74 <vmunmap>
  return -1;
    802012e6:	557d                	li	a0,-1
}
    802012e8:	60a6                	ld	ra,72(sp)
    802012ea:	6406                	ld	s0,64(sp)
    802012ec:	74e2                	ld	s1,56(sp)
    802012ee:	7942                	ld	s2,48(sp)
    802012f0:	79a2                	ld	s3,40(sp)
    802012f2:	7a02                	ld	s4,32(sp)
    802012f4:	6ae2                	ld	s5,24(sp)
    802012f6:	6b42                	ld	s6,16(sp)
    802012f8:	6ba2                	ld	s7,8(sp)
    802012fa:	6c02                	ld	s8,0(sp)
    802012fc:	6161                	addi	sp,sp,80
    802012fe:	8082                	ret
  return 0;
    80201300:	4501                	li	a0,0
}
    80201302:	8082                	ret

0000000080201304 <uvmclear>:

// mark a PTE invalid for user access.
// used by exec for the user stack guard page.
void
uvmclear(pagetable_t pagetable, uint64 va)
{
    80201304:	1141                	addi	sp,sp,-16
    80201306:	e406                	sd	ra,8(sp)
    80201308:	e022                	sd	s0,0(sp)
    8020130a:	0800                	addi	s0,sp,16
  pte_t *pte;
  
  pte = walk(pagetable, va, 0);
    8020130c:	4601                	li	a2,0
    8020130e:	00000097          	auipc	ra,0x0
    80201312:	84a080e7          	jalr	-1974(ra) # 80200b58 <walk>
  if(pte == NULL)
    80201316:	c901                	beqz	a0,80201326 <uvmclear+0x22>
    panic("uvmclear");
  *pte &= ~PTE_U;
    80201318:	611c                	ld	a5,0(a0)
    8020131a:	9bbd                	andi	a5,a5,-17
    8020131c:	e11c                	sd	a5,0(a0)
}
    8020131e:	60a2                	ld	ra,8(sp)
    80201320:	6402                	ld	s0,0(sp)
    80201322:	0141                	addi	sp,sp,16
    80201324:	8082                	ret
    panic("uvmclear");
    80201326:	00008517          	auipc	a0,0x8
    8020132a:	1ca50513          	addi	a0,a0,458 # 802094f0 <etext+0x4f0>
    8020132e:	fffff097          	auipc	ra,0xfffff
    80201332:	e18080e7          	jalr	-488(ra) # 80200146 <panic>

0000000080201336 <copyout>:
int
copyout(pagetable_t pagetable, uint64 dstva, char *src, uint64 len)
{
  uint64 n, va0, pa0;

  while(len > 0){
    80201336:	c6bd                	beqz	a3,802013a4 <copyout+0x6e>
{
    80201338:	715d                	addi	sp,sp,-80
    8020133a:	e486                	sd	ra,72(sp)
    8020133c:	e0a2                	sd	s0,64(sp)
    8020133e:	fc26                	sd	s1,56(sp)
    80201340:	f84a                	sd	s2,48(sp)
    80201342:	f44e                	sd	s3,40(sp)
    80201344:	f052                	sd	s4,32(sp)
    80201346:	ec56                	sd	s5,24(sp)
    80201348:	e85a                	sd	s6,16(sp)
    8020134a:	e45e                	sd	s7,8(sp)
    8020134c:	e062                	sd	s8,0(sp)
    8020134e:	0880                	addi	s0,sp,80
    80201350:	8baa                	mv	s7,a0
    80201352:	8a2e                	mv	s4,a1
    80201354:	8ab2                	mv	s5,a2
    80201356:	89b6                	mv	s3,a3
    va0 = PGROUNDDOWN(dstva);
    80201358:	7c7d                	lui	s8,0xfffff
    pa0 = walkaddr(pagetable, va0);
    if(pa0 == NULL)
      return -1;
    n = PGSIZE - (dstva - va0);
    8020135a:	6b05                	lui	s6,0x1
    8020135c:	a015                	j	80201380 <copyout+0x4a>
    if(n > len)
      n = len;
    memmove((void *)(pa0 + (dstva - va0)), src, n);
    8020135e:	9552                	add	a0,a0,s4
    80201360:	0004861b          	sext.w	a2,s1
    80201364:	85d6                	mv	a1,s5
    80201366:	41250533          	sub	a0,a0,s2
    8020136a:	fffff097          	auipc	ra,0xfffff
    8020136e:	476080e7          	jalr	1142(ra) # 802007e0 <memmove>

    len -= n;
    80201372:	409989b3          	sub	s3,s3,s1
    src += n;
    80201376:	9aa6                	add	s5,s5,s1
    dstva = va0 + PGSIZE;
    80201378:	01690a33          	add	s4,s2,s6
  while(len > 0){
    8020137c:	02098263          	beqz	s3,802013a0 <copyout+0x6a>
    va0 = PGROUNDDOWN(dstva);
    80201380:	018a7933          	and	s2,s4,s8
    pa0 = walkaddr(pagetable, va0);
    80201384:	85ca                	mv	a1,s2
    80201386:	855e                	mv	a0,s7
    80201388:	00000097          	auipc	ra,0x0
    8020138c:	876080e7          	jalr	-1930(ra) # 80200bfe <walkaddr>
    if(pa0 == NULL)
    80201390:	cd01                	beqz	a0,802013a8 <copyout+0x72>
    n = PGSIZE - (dstva - va0);
    80201392:	414904b3          	sub	s1,s2,s4
    80201396:	94da                	add	s1,s1,s6
    if(n > len)
    80201398:	fc99f3e3          	bleu	s1,s3,8020135e <copyout+0x28>
    8020139c:	84ce                	mv	s1,s3
    8020139e:	b7c1                	j	8020135e <copyout+0x28>
  }
  return 0;
    802013a0:	4501                	li	a0,0
    802013a2:	a021                	j	802013aa <copyout+0x74>
    802013a4:	4501                	li	a0,0
}
    802013a6:	8082                	ret
      return -1;
    802013a8:	557d                	li	a0,-1
}
    802013aa:	60a6                	ld	ra,72(sp)
    802013ac:	6406                	ld	s0,64(sp)
    802013ae:	74e2                	ld	s1,56(sp)
    802013b0:	7942                	ld	s2,48(sp)
    802013b2:	79a2                	ld	s3,40(sp)
    802013b4:	7a02                	ld	s4,32(sp)
    802013b6:	6ae2                	ld	s5,24(sp)
    802013b8:	6b42                	ld	s6,16(sp)
    802013ba:	6ba2                	ld	s7,8(sp)
    802013bc:	6c02                	ld	s8,0(sp)
    802013be:	6161                	addi	sp,sp,80
    802013c0:	8082                	ret

00000000802013c2 <copyout2>:

int
copyout2(uint64 dstva, char *src, uint64 len)
{
    802013c2:	7179                	addi	sp,sp,-48
    802013c4:	f406                	sd	ra,40(sp)
    802013c6:	f022                	sd	s0,32(sp)
    802013c8:	ec26                	sd	s1,24(sp)
    802013ca:	e84a                	sd	s2,16(sp)
    802013cc:	e44e                	sd	s3,8(sp)
    802013ce:	1800                	addi	s0,sp,48
    802013d0:	84aa                	mv	s1,a0
    802013d2:	89ae                	mv	s3,a1
    802013d4:	8932                	mv	s2,a2
  uint64 sz = myproc()->sz;
    802013d6:	00000097          	auipc	ra,0x0
    802013da:	6ea080e7          	jalr	1770(ra) # 80201ac0 <myproc>
    802013de:	653c                	ld	a5,72(a0)
  if (dstva + len > sz || dstva >= sz) {
    802013e0:	01248733          	add	a4,s1,s2
    802013e4:	02e7e463          	bltu	a5,a4,8020140c <copyout2+0x4a>
    802013e8:	02f4f463          	bleu	a5,s1,80201410 <copyout2+0x4e>
    return -1;
  }
  memmove((void *)dstva, src, len);
    802013ec:	0009061b          	sext.w	a2,s2
    802013f0:	85ce                	mv	a1,s3
    802013f2:	8526                	mv	a0,s1
    802013f4:	fffff097          	auipc	ra,0xfffff
    802013f8:	3ec080e7          	jalr	1004(ra) # 802007e0 <memmove>
  return 0;
    802013fc:	4501                	li	a0,0
}
    802013fe:	70a2                	ld	ra,40(sp)
    80201400:	7402                	ld	s0,32(sp)
    80201402:	64e2                	ld	s1,24(sp)
    80201404:	6942                	ld	s2,16(sp)
    80201406:	69a2                	ld	s3,8(sp)
    80201408:	6145                	addi	sp,sp,48
    8020140a:	8082                	ret
    return -1;
    8020140c:	557d                	li	a0,-1
    8020140e:	bfc5                	j	802013fe <copyout2+0x3c>
    80201410:	557d                	li	a0,-1
    80201412:	b7f5                	j	802013fe <copyout2+0x3c>

0000000080201414 <copyin>:
int
copyin(pagetable_t pagetable, char *dst, uint64 srcva, uint64 len)
{
  uint64 n, va0, pa0;

  while(len > 0){
    80201414:	caa5                	beqz	a3,80201484 <copyin+0x70>
{
    80201416:	715d                	addi	sp,sp,-80
    80201418:	e486                	sd	ra,72(sp)
    8020141a:	e0a2                	sd	s0,64(sp)
    8020141c:	fc26                	sd	s1,56(sp)
    8020141e:	f84a                	sd	s2,48(sp)
    80201420:	f44e                	sd	s3,40(sp)
    80201422:	f052                	sd	s4,32(sp)
    80201424:	ec56                	sd	s5,24(sp)
    80201426:	e85a                	sd	s6,16(sp)
    80201428:	e45e                	sd	s7,8(sp)
    8020142a:	e062                	sd	s8,0(sp)
    8020142c:	0880                	addi	s0,sp,80
    8020142e:	8baa                	mv	s7,a0
    80201430:	8aae                	mv	s5,a1
    80201432:	8a32                	mv	s4,a2
    80201434:	89b6                	mv	s3,a3
    va0 = PGROUNDDOWN(srcva);
    80201436:	7c7d                	lui	s8,0xfffff
    pa0 = walkaddr(pagetable, va0);
    if(pa0 == NULL)
      return -1;
    n = PGSIZE - (srcva - va0);
    80201438:	6b05                	lui	s6,0x1
    8020143a:	a01d                	j	80201460 <copyin+0x4c>
    if(n > len)
      n = len;
    memmove(dst, (void *)(pa0 + (srcva - va0)), n);
    8020143c:	014505b3          	add	a1,a0,s4
    80201440:	0004861b          	sext.w	a2,s1
    80201444:	412585b3          	sub	a1,a1,s2
    80201448:	8556                	mv	a0,s5
    8020144a:	fffff097          	auipc	ra,0xfffff
    8020144e:	396080e7          	jalr	918(ra) # 802007e0 <memmove>

    len -= n;
    80201452:	409989b3          	sub	s3,s3,s1
    dst += n;
    80201456:	9aa6                	add	s5,s5,s1
    srcva = va0 + PGSIZE;
    80201458:	01690a33          	add	s4,s2,s6
  while(len > 0){
    8020145c:	02098263          	beqz	s3,80201480 <copyin+0x6c>
    va0 = PGROUNDDOWN(srcva);
    80201460:	018a7933          	and	s2,s4,s8
    pa0 = walkaddr(pagetable, va0);
    80201464:	85ca                	mv	a1,s2
    80201466:	855e                	mv	a0,s7
    80201468:	fffff097          	auipc	ra,0xfffff
    8020146c:	796080e7          	jalr	1942(ra) # 80200bfe <walkaddr>
    if(pa0 == NULL)
    80201470:	cd01                	beqz	a0,80201488 <copyin+0x74>
    n = PGSIZE - (srcva - va0);
    80201472:	414904b3          	sub	s1,s2,s4
    80201476:	94da                	add	s1,s1,s6
    if(n > len)
    80201478:	fc99f2e3          	bleu	s1,s3,8020143c <copyin+0x28>
    8020147c:	84ce                	mv	s1,s3
    8020147e:	bf7d                	j	8020143c <copyin+0x28>
  }
  return 0;
    80201480:	4501                	li	a0,0
    80201482:	a021                	j	8020148a <copyin+0x76>
    80201484:	4501                	li	a0,0
}
    80201486:	8082                	ret
      return -1;
    80201488:	557d                	li	a0,-1
}
    8020148a:	60a6                	ld	ra,72(sp)
    8020148c:	6406                	ld	s0,64(sp)
    8020148e:	74e2                	ld	s1,56(sp)
    80201490:	7942                	ld	s2,48(sp)
    80201492:	79a2                	ld	s3,40(sp)
    80201494:	7a02                	ld	s4,32(sp)
    80201496:	6ae2                	ld	s5,24(sp)
    80201498:	6b42                	ld	s6,16(sp)
    8020149a:	6ba2                	ld	s7,8(sp)
    8020149c:	6c02                	ld	s8,0(sp)
    8020149e:	6161                	addi	sp,sp,80
    802014a0:	8082                	ret

00000000802014a2 <copyin2>:

int
copyin2(char *dst, uint64 srcva, uint64 len)
{
    802014a2:	7179                	addi	sp,sp,-48
    802014a4:	f406                	sd	ra,40(sp)
    802014a6:	f022                	sd	s0,32(sp)
    802014a8:	ec26                	sd	s1,24(sp)
    802014aa:	e84a                	sd	s2,16(sp)
    802014ac:	e44e                	sd	s3,8(sp)
    802014ae:	1800                	addi	s0,sp,48
    802014b0:	89aa                	mv	s3,a0
    802014b2:	84ae                	mv	s1,a1
    802014b4:	8932                	mv	s2,a2
  uint64 sz = myproc()->sz;
    802014b6:	00000097          	auipc	ra,0x0
    802014ba:	60a080e7          	jalr	1546(ra) # 80201ac0 <myproc>
    802014be:	653c                	ld	a5,72(a0)
  if (srcva + len > sz || srcva >= sz) {
    802014c0:	01248733          	add	a4,s1,s2
    802014c4:	02e7e463          	bltu	a5,a4,802014ec <copyin2+0x4a>
    802014c8:	02f4f463          	bleu	a5,s1,802014f0 <copyin2+0x4e>
    return -1;
  }
  memmove(dst, (void *)srcva, len);
    802014cc:	0009061b          	sext.w	a2,s2
    802014d0:	85a6                	mv	a1,s1
    802014d2:	854e                	mv	a0,s3
    802014d4:	fffff097          	auipc	ra,0xfffff
    802014d8:	30c080e7          	jalr	780(ra) # 802007e0 <memmove>
  return 0;
    802014dc:	4501                	li	a0,0
}
    802014de:	70a2                	ld	ra,40(sp)
    802014e0:	7402                	ld	s0,32(sp)
    802014e2:	64e2                	ld	s1,24(sp)
    802014e4:	6942                	ld	s2,16(sp)
    802014e6:	69a2                	ld	s3,8(sp)
    802014e8:	6145                	addi	sp,sp,48
    802014ea:	8082                	ret
    return -1;
    802014ec:	557d                	li	a0,-1
    802014ee:	bfc5                	j	802014de <copyin2+0x3c>
    802014f0:	557d                	li	a0,-1
    802014f2:	b7f5                	j	802014de <copyin2+0x3c>

00000000802014f4 <copyinstr>:
copyinstr(pagetable_t pagetable, char *dst, uint64 srcva, uint64 max)
{
  uint64 n, va0, pa0;
  int got_null = 0;

  while(got_null == 0 && max > 0){
    802014f4:	ced5                	beqz	a3,802015b0 <copyinstr+0xbc>
{
    802014f6:	715d                	addi	sp,sp,-80
    802014f8:	e486                	sd	ra,72(sp)
    802014fa:	e0a2                	sd	s0,64(sp)
    802014fc:	fc26                	sd	s1,56(sp)
    802014fe:	f84a                	sd	s2,48(sp)
    80201500:	f44e                	sd	s3,40(sp)
    80201502:	f052                	sd	s4,32(sp)
    80201504:	ec56                	sd	s5,24(sp)
    80201506:	e85a                	sd	s6,16(sp)
    80201508:	e45e                	sd	s7,8(sp)
    8020150a:	e062                	sd	s8,0(sp)
    8020150c:	0880                	addi	s0,sp,80
    8020150e:	8aaa                	mv	s5,a0
    80201510:	84ae                	mv	s1,a1
    80201512:	8c32                	mv	s8,a2
    80201514:	8bb6                	mv	s7,a3
    va0 = PGROUNDDOWN(srcva);
    80201516:	7a7d                	lui	s4,0xfffff
    pa0 = walkaddr(pagetable, va0);
    if(pa0 == NULL)
      return -1;
    n = PGSIZE - (srcva - va0);
    80201518:	6985                	lui	s3,0x1
    8020151a:	4b05                	li	s6,1
    8020151c:	a801                	j	8020152c <copyinstr+0x38>
    if(n > max)
      n = max;

    char *p = (char *) (pa0 + (srcva - va0));
    while(n > 0){
      if(*p == '\0'){
    8020151e:	87a6                	mv	a5,s1
    80201520:	a085                	j	80201580 <copyinstr+0x8c>
        *dst = *p;
      }
      --n;
      --max;
      p++;
      dst++;
    80201522:	84b2                	mv	s1,a2
    }

    srcva = va0 + PGSIZE;
    80201524:	01390c33          	add	s8,s2,s3
  while(got_null == 0 && max > 0){
    80201528:	080b8063          	beqz	s7,802015a8 <copyinstr+0xb4>
    va0 = PGROUNDDOWN(srcva);
    8020152c:	014c7933          	and	s2,s8,s4
    pa0 = walkaddr(pagetable, va0);
    80201530:	85ca                	mv	a1,s2
    80201532:	8556                	mv	a0,s5
    80201534:	fffff097          	auipc	ra,0xfffff
    80201538:	6ca080e7          	jalr	1738(ra) # 80200bfe <walkaddr>
    if(pa0 == NULL)
    8020153c:	c925                	beqz	a0,802015ac <copyinstr+0xb8>
    n = PGSIZE - (srcva - va0);
    8020153e:	41890633          	sub	a2,s2,s8
    80201542:	964e                	add	a2,a2,s3
    if(n > max)
    80201544:	00cbf363          	bleu	a2,s7,8020154a <copyinstr+0x56>
    80201548:	865e                	mv	a2,s7
    char *p = (char *) (pa0 + (srcva - va0));
    8020154a:	9562                	add	a0,a0,s8
    8020154c:	41250533          	sub	a0,a0,s2
    while(n > 0){
    80201550:	da71                	beqz	a2,80201524 <copyinstr+0x30>
      if(*p == '\0'){
    80201552:	00054703          	lbu	a4,0(a0)
    80201556:	d761                	beqz	a4,8020151e <copyinstr+0x2a>
    80201558:	9626                	add	a2,a2,s1
    8020155a:	87a6                	mv	a5,s1
    8020155c:	1bfd                	addi	s7,s7,-1
    8020155e:	009b86b3          	add	a3,s7,s1
    80201562:	409b04b3          	sub	s1,s6,s1
    80201566:	94aa                	add	s1,s1,a0
        *dst = *p;
    80201568:	00e78023          	sb	a4,0(a5) # 1000 <BASE_ADDRESS-0x801ff000>
      --max;
    8020156c:	40f68bb3          	sub	s7,a3,a5
      p++;
    80201570:	00f48733          	add	a4,s1,a5
      dst++;
    80201574:	0785                	addi	a5,a5,1
    while(n > 0){
    80201576:	faf606e3          	beq	a2,a5,80201522 <copyinstr+0x2e>
      if(*p == '\0'){
    8020157a:	00074703          	lbu	a4,0(a4) # fffffffffffff000 <ebss_clear+0xffffffff7fdda000>
    8020157e:	f76d                	bnez	a4,80201568 <copyinstr+0x74>
        *dst = '\0';
    80201580:	00078023          	sb	zero,0(a5)
    80201584:	4785                	li	a5,1
  }
  if(got_null){
    80201586:	0017b513          	seqz	a0,a5
    8020158a:	40a0053b          	negw	a0,a0
    8020158e:	2501                	sext.w	a0,a0
    return 0;
  } else {
    return -1;
  }
}
    80201590:	60a6                	ld	ra,72(sp)
    80201592:	6406                	ld	s0,64(sp)
    80201594:	74e2                	ld	s1,56(sp)
    80201596:	7942                	ld	s2,48(sp)
    80201598:	79a2                	ld	s3,40(sp)
    8020159a:	7a02                	ld	s4,32(sp)
    8020159c:	6ae2                	ld	s5,24(sp)
    8020159e:	6b42                	ld	s6,16(sp)
    802015a0:	6ba2                	ld	s7,8(sp)
    802015a2:	6c02                	ld	s8,0(sp)
    802015a4:	6161                	addi	sp,sp,80
    802015a6:	8082                	ret
    802015a8:	4781                	li	a5,0
    802015aa:	bff1                	j	80201586 <copyinstr+0x92>
      return -1;
    802015ac:	557d                	li	a0,-1
    802015ae:	b7cd                	j	80201590 <copyinstr+0x9c>
  int got_null = 0;
    802015b0:	4781                	li	a5,0
  if(got_null){
    802015b2:	0017b513          	seqz	a0,a5
    802015b6:	40a0053b          	negw	a0,a0
    802015ba:	2501                	sext.w	a0,a0
}
    802015bc:	8082                	ret

00000000802015be <copyinstr2>:

int
copyinstr2(char *dst, uint64 srcva, uint64 max)
{
    802015be:	7179                	addi	sp,sp,-48
    802015c0:	f406                	sd	ra,40(sp)
    802015c2:	f022                	sd	s0,32(sp)
    802015c4:	ec26                	sd	s1,24(sp)
    802015c6:	e84a                	sd	s2,16(sp)
    802015c8:	e44e                	sd	s3,8(sp)
    802015ca:	1800                	addi	s0,sp,48
    802015cc:	89aa                	mv	s3,a0
    802015ce:	84ae                	mv	s1,a1
    802015d0:	8932                	mv	s2,a2
  int got_null = 0;
  uint64 sz = myproc()->sz;
    802015d2:	00000097          	auipc	ra,0x0
    802015d6:	4ee080e7          	jalr	1262(ra) # 80201ac0 <myproc>
    802015da:	6534                	ld	a3,72(a0)
  while(srcva < sz && max > 0){
    802015dc:	04d4f863          	bleu	a3,s1,8020162c <copyinstr2+0x6e>
    802015e0:	04090863          	beqz	s2,80201630 <copyinstr2+0x72>
    char *p = (char *)srcva;
    if(*p == '\0'){
    802015e4:	0004c703          	lbu	a4,0(s1)
    802015e8:	cf15                	beqz	a4,80201624 <copyinstr2+0x66>
    802015ea:	8e85                	sub	a3,a3,s1
    802015ec:	96ce                	add	a3,a3,s3
    802015ee:	01298633          	add	a2,s3,s2
    802015f2:	87ce                	mv	a5,s3
    802015f4:	413485b3          	sub	a1,s1,s3
      *dst = '\0';
      got_null = 1;
      break;
    } else {
      *dst = *p;
    802015f8:	00e78023          	sb	a4,0(a5)
    }
    --max;
    srcva++;
    dst++;
    802015fc:	0785                	addi	a5,a5,1
  while(srcva < sz && max > 0){
    802015fe:	02f68b63          	beq	a3,a5,80201634 <copyinstr2+0x76>
    80201602:	02c78363          	beq	a5,a2,80201628 <copyinstr2+0x6a>
    if(*p == '\0'){
    80201606:	00b78733          	add	a4,a5,a1
    8020160a:	00074703          	lbu	a4,0(a4)
    8020160e:	f76d                	bnez	a4,802015f8 <copyinstr2+0x3a>
      *dst = '\0';
    80201610:	00078023          	sb	zero,0(a5)
  }
  if(got_null){
    return 0;
    80201614:	4501                	li	a0,0
  } else {
    return -1;
  }
}
    80201616:	70a2                	ld	ra,40(sp)
    80201618:	7402                	ld	s0,32(sp)
    8020161a:	64e2                	ld	s1,24(sp)
    8020161c:	6942                	ld	s2,16(sp)
    8020161e:	69a2                	ld	s3,8(sp)
    80201620:	6145                	addi	sp,sp,48
    80201622:	8082                	ret
    if(*p == '\0'){
    80201624:	87ce                	mv	a5,s3
    80201626:	b7ed                	j	80201610 <copyinstr2+0x52>
    return -1;
    80201628:	557d                	li	a0,-1
    8020162a:	b7f5                	j	80201616 <copyinstr2+0x58>
    8020162c:	557d                	li	a0,-1
    8020162e:	b7e5                	j	80201616 <copyinstr2+0x58>
    80201630:	557d                	li	a0,-1
    80201632:	b7d5                	j	80201616 <copyinstr2+0x58>
    80201634:	557d                	li	a0,-1
    80201636:	b7c5                	j	80201616 <copyinstr2+0x58>

0000000080201638 <kfreewalk>:
}

// only free page table, not physical pages
void
kfreewalk(pagetable_t kpt)
{
    80201638:	7179                	addi	sp,sp,-48
    8020163a:	f406                	sd	ra,40(sp)
    8020163c:	f022                	sd	s0,32(sp)
    8020163e:	ec26                	sd	s1,24(sp)
    80201640:	e84a                	sd	s2,16(sp)
    80201642:	e44e                	sd	s3,8(sp)
    80201644:	e052                	sd	s4,0(sp)
    80201646:	1800                	addi	s0,sp,48
    80201648:	8a2a                	mv	s4,a0
  for (int i = 0; i < 512; i++) {
    8020164a:	84aa                	mv	s1,a0
    8020164c:	6905                	lui	s2,0x1
    8020164e:	992a                	add	s2,s2,a0
    pte_t pte = kpt[i];
    if ((pte & PTE_V) && (pte & (PTE_R|PTE_W|PTE_X)) == 0) {
    80201650:	4985                	li	s3,1
    80201652:	a821                	j	8020166a <kfreewalk+0x32>
      kfreewalk((pagetable_t) PTE2PA(pte));
    80201654:	8129                	srli	a0,a0,0xa
    80201656:	0532                	slli	a0,a0,0xc
    80201658:	00000097          	auipc	ra,0x0
    8020165c:	fe0080e7          	jalr	-32(ra) # 80201638 <kfreewalk>
      kpt[i] = 0;
    80201660:	0004b023          	sd	zero,0(s1)
  for (int i = 0; i < 512; i++) {
    80201664:	04a1                	addi	s1,s1,8
    80201666:	01248963          	beq	s1,s2,80201678 <kfreewalk+0x40>
    pte_t pte = kpt[i];
    8020166a:	6088                	ld	a0,0(s1)
    if ((pte & PTE_V) && (pte & (PTE_R|PTE_W|PTE_X)) == 0) {
    8020166c:	00f57793          	andi	a5,a0,15
    80201670:	ff3782e3          	beq	a5,s3,80201654 <kfreewalk+0x1c>
    } else if (pte & PTE_V) {
    80201674:	8905                	andi	a0,a0,1
    80201676:	d57d                	beqz	a0,80201664 <kfreewalk+0x2c>
      break;
    }
  }
  kfree((void *) kpt);
    80201678:	8552                	mv	a0,s4
    8020167a:	fffff097          	auipc	ra,0xfffff
    8020167e:	dd4080e7          	jalr	-556(ra) # 8020044e <kfree>
}
    80201682:	70a2                	ld	ra,40(sp)
    80201684:	7402                	ld	s0,32(sp)
    80201686:	64e2                	ld	s1,24(sp)
    80201688:	6942                	ld	s2,16(sp)
    8020168a:	69a2                	ld	s3,8(sp)
    8020168c:	6a02                	ld	s4,0(sp)
    8020168e:	6145                	addi	sp,sp,48
    80201690:	8082                	ret

0000000080201692 <kvmfreeusr>:

void
kvmfreeusr(pagetable_t kpt)
{
    80201692:	1101                	addi	sp,sp,-32
    80201694:	ec06                	sd	ra,24(sp)
    80201696:	e822                	sd	s0,16(sp)
    80201698:	e426                	sd	s1,8(sp)
    8020169a:	1000                	addi	s0,sp,32
    8020169c:	84aa                	mv	s1,a0
  pte_t pte;
  for (int i = 0; i < PX(2, MAXUVA); i++) {
    pte = kpt[i];
    8020169e:	6108                	ld	a0,0(a0)
    if ((pte & PTE_V) && (pte & (PTE_R|PTE_W|PTE_X)) == 0) {
    802016a0:	00f57713          	andi	a4,a0,15
    802016a4:	4785                	li	a5,1
    802016a6:	00f70d63          	beq	a4,a5,802016c0 <kvmfreeusr+0x2e>
    pte = kpt[i];
    802016aa:	6488                	ld	a0,8(s1)
    if ((pte & PTE_V) && (pte & (PTE_R|PTE_W|PTE_X)) == 0) {
    802016ac:	00f57713          	andi	a4,a0,15
    802016b0:	4785                	li	a5,1
    802016b2:	02f70063          	beq	a4,a5,802016d2 <kvmfreeusr+0x40>
      kfreewalk((pagetable_t) PTE2PA(pte));
      kpt[i] = 0;
    }
  }
}
    802016b6:	60e2                	ld	ra,24(sp)
    802016b8:	6442                	ld	s0,16(sp)
    802016ba:	64a2                	ld	s1,8(sp)
    802016bc:	6105                	addi	sp,sp,32
    802016be:	8082                	ret
      kfreewalk((pagetable_t) PTE2PA(pte));
    802016c0:	8129                	srli	a0,a0,0xa
    802016c2:	0532                	slli	a0,a0,0xc
    802016c4:	00000097          	auipc	ra,0x0
    802016c8:	f74080e7          	jalr	-140(ra) # 80201638 <kfreewalk>
      kpt[i] = 0;
    802016cc:	0004b023          	sd	zero,0(s1)
    802016d0:	bfe9                	j	802016aa <kvmfreeusr+0x18>
      kfreewalk((pagetable_t) PTE2PA(pte));
    802016d2:	8129                	srli	a0,a0,0xa
    802016d4:	0532                	slli	a0,a0,0xc
    802016d6:	00000097          	auipc	ra,0x0
    802016da:	f62080e7          	jalr	-158(ra) # 80201638 <kfreewalk>
      kpt[i] = 0;
    802016de:	0004b423          	sd	zero,8(s1)
}
    802016e2:	bfd1                	j	802016b6 <kvmfreeusr+0x24>

00000000802016e4 <kvmfree>:

void
kvmfree(pagetable_t kpt, int stack_free)
{
    802016e4:	1101                	addi	sp,sp,-32
    802016e6:	ec06                	sd	ra,24(sp)
    802016e8:	e822                	sd	s0,16(sp)
    802016ea:	e426                	sd	s1,8(sp)
    802016ec:	1000                	addi	s0,sp,32
    802016ee:	84aa                	mv	s1,a0
  if (stack_free) {
    802016f0:	e185                	bnez	a1,80201710 <kvmfree+0x2c>
    pte_t pte = kpt[PX(2, VKSTACK)];
    if ((pte & PTE_V) && (pte & (PTE_R|PTE_W|PTE_X)) == 0) {
      kfreewalk((pagetable_t) PTE2PA(pte));
    }
  }
  kvmfreeusr(kpt);
    802016f2:	8526                	mv	a0,s1
    802016f4:	00000097          	auipc	ra,0x0
    802016f8:	f9e080e7          	jalr	-98(ra) # 80201692 <kvmfreeusr>
  kfree(kpt);
    802016fc:	8526                	mv	a0,s1
    802016fe:	fffff097          	auipc	ra,0xfffff
    80201702:	d50080e7          	jalr	-688(ra) # 8020044e <kfree>
}
    80201706:	60e2                	ld	ra,24(sp)
    80201708:	6442                	ld	s0,16(sp)
    8020170a:	64a2                	ld	s1,8(sp)
    8020170c:	6105                	addi	sp,sp,32
    8020170e:	8082                	ret
    vmunmap(kpt, VKSTACK, 1, 1);
    80201710:	4685                	li	a3,1
    80201712:	4605                	li	a2,1
    80201714:	0fb00593          	li	a1,251
    80201718:	05fa                	slli	a1,a1,0x1e
    8020171a:	fffff097          	auipc	ra,0xfffff
    8020171e:	75a080e7          	jalr	1882(ra) # 80200e74 <vmunmap>
    pte_t pte = kpt[PX(2, VKSTACK)];
    80201722:	7d84b503          	ld	a0,2008(s1)
    if ((pte & PTE_V) && (pte & (PTE_R|PTE_W|PTE_X)) == 0) {
    80201726:	00f57713          	andi	a4,a0,15
    8020172a:	4785                	li	a5,1
    8020172c:	fcf713e3          	bne	a4,a5,802016f2 <kvmfree+0xe>
      kfreewalk((pagetable_t) PTE2PA(pte));
    80201730:	8129                	srli	a0,a0,0xa
    80201732:	0532                	slli	a0,a0,0xc
    80201734:	00000097          	auipc	ra,0x0
    80201738:	f04080e7          	jalr	-252(ra) # 80201638 <kfreewalk>
    8020173c:	bf5d                	j	802016f2 <kvmfree+0xe>

000000008020173e <proc_kpagetable>:
{
    8020173e:	1101                	addi	sp,sp,-32
    80201740:	ec06                	sd	ra,24(sp)
    80201742:	e822                	sd	s0,16(sp)
    80201744:	e426                	sd	s1,8(sp)
    80201746:	1000                	addi	s0,sp,32
  pagetable_t kpt = (pagetable_t) kalloc();
    80201748:	fffff097          	auipc	ra,0xfffff
    8020174c:	e22080e7          	jalr	-478(ra) # 8020056a <kalloc>
    80201750:	84aa                	mv	s1,a0
  if (kpt == NULL)
    80201752:	cd05                	beqz	a0,8020178a <proc_kpagetable+0x4c>
  memmove(kpt, kernel_pagetable, PGSIZE);
    80201754:	6605                	lui	a2,0x1
    80201756:	00012797          	auipc	a5,0x12
    8020175a:	90278793          	addi	a5,a5,-1790 # 80213058 <kernel_pagetable>
    8020175e:	638c                	ld	a1,0(a5)
    80201760:	fffff097          	auipc	ra,0xfffff
    80201764:	080080e7          	jalr	128(ra) # 802007e0 <memmove>
  char *pstack = kalloc();
    80201768:	fffff097          	auipc	ra,0xfffff
    8020176c:	e02080e7          	jalr	-510(ra) # 8020056a <kalloc>
  if(pstack == NULL)
    80201770:	c11d                	beqz	a0,80201796 <proc_kpagetable+0x58>
  if (mappages(kpt, VKSTACK, PGSIZE, (uint64)pstack, PTE_R | PTE_W) != 0)
    80201772:	4719                	li	a4,6
    80201774:	86aa                	mv	a3,a0
    80201776:	6605                	lui	a2,0x1
    80201778:	0fb00593          	li	a1,251
    8020177c:	05fa                	slli	a1,a1,0x1e
    8020177e:	8526                	mv	a0,s1
    80201780:	fffff097          	auipc	ra,0xfffff
    80201784:	53a080e7          	jalr	1338(ra) # 80200cba <mappages>
    80201788:	e519                	bnez	a0,80201796 <proc_kpagetable+0x58>
}
    8020178a:	8526                	mv	a0,s1
    8020178c:	60e2                	ld	ra,24(sp)
    8020178e:	6442                	ld	s0,16(sp)
    80201790:	64a2                	ld	s1,8(sp)
    80201792:	6105                	addi	sp,sp,32
    80201794:	8082                	ret
  kvmfree(kpt, 1);
    80201796:	4585                	li	a1,1
    80201798:	8526                	mv	a0,s1
    8020179a:	00000097          	auipc	ra,0x0
    8020179e:	f4a080e7          	jalr	-182(ra) # 802016e4 <kvmfree>
  return NULL;
    802017a2:	4481                	li	s1,0
    802017a4:	b7dd                	j	8020178a <proc_kpagetable+0x4c>

00000000802017a6 <vmprint>:

void vmprint(pagetable_t pagetable)
{
    802017a6:	7119                	addi	sp,sp,-128
    802017a8:	fc86                	sd	ra,120(sp)
    802017aa:	f8a2                	sd	s0,112(sp)
    802017ac:	f4a6                	sd	s1,104(sp)
    802017ae:	f0ca                	sd	s2,96(sp)
    802017b0:	ecce                	sd	s3,88(sp)
    802017b2:	e8d2                	sd	s4,80(sp)
    802017b4:	e4d6                	sd	s5,72(sp)
    802017b6:	e0da                	sd	s6,64(sp)
    802017b8:	fc5e                	sd	s7,56(sp)
    802017ba:	f862                	sd	s8,48(sp)
    802017bc:	f466                	sd	s9,40(sp)
    802017be:	f06a                	sd	s10,32(sp)
    802017c0:	ec6e                	sd	s11,24(sp)
    802017c2:	0100                	addi	s0,sp,128
    802017c4:	8baa                	mv	s7,a0
    802017c6:	f8a43023          	sd	a0,-128(s0)
  const int capacity = 512;
  printf("page table %p\n", pagetable);
    802017ca:	85aa                	mv	a1,a0
    802017cc:	00008517          	auipc	a0,0x8
    802017d0:	d3450513          	addi	a0,a0,-716 # 80209500 <etext+0x500>
    802017d4:	fffff097          	auipc	ra,0xfffff
    802017d8:	9bc080e7          	jalr	-1604(ra) # 80200190 <printf>
  for (pte_t *pte = (pte_t *) pagetable; pte < pagetable + capacity; pte++) {
    802017dc:	6d05                	lui	s10,0x1
    802017de:	9d5e                	add	s10,s10,s7
    802017e0:	6c05                	lui	s8,0x1

      for (pte_t *pte2 = (pte_t *) pt2; pte2 < pt2 + capacity; pte2++) {
        if (*pte2 & PTE_V)
        {
          pagetable_t pt3 = (pagetable_t) PTE2PA(*pte2);
          printf(".. ..%d: pte %p pa %p\n", pte2 - pt2, *pte2, pt3);
    802017e2:	00008d97          	auipc	s11,0x8
    802017e6:	d46d8d93          	addi	s11,s11,-698 # 80209528 <etext+0x528>
    802017ea:	20000793          	li	a5,512
    802017ee:	f8f43423          	sd	a5,-120(s0)

          for (pte_t *pte3 = (pte_t *) pt3; pte3 < pt3 + capacity; pte3++)
            if (*pte3 & PTE_V)
              printf(".. .. ..%d: pte %p pa %p\n", pte3 - pt3, *pte3, PTE2PA(*pte3));
    802017f2:	00008a17          	auipc	s4,0x8
    802017f6:	d4ea0a13          	addi	s4,s4,-690 # 80209540 <etext+0x540>
    802017fa:	a88d                	j	8020186c <vmprint+0xc6>
    802017fc:	00a65693          	srli	a3,a2,0xa
    80201800:	413485b3          	sub	a1,s1,s3
    80201804:	06b2                	slli	a3,a3,0xc
    80201806:	858d                	srai	a1,a1,0x3
    80201808:	8552                	mv	a0,s4
    8020180a:	fffff097          	auipc	ra,0xfffff
    8020180e:	986080e7          	jalr	-1658(ra) # 80200190 <printf>
          for (pte_t *pte3 = (pte_t *) pt3; pte3 < pt3 + capacity; pte3++)
    80201812:	04a1                	addi	s1,s1,8
    80201814:	01248763          	beq	s1,s2,80201822 <vmprint+0x7c>
            if (*pte3 & PTE_V)
    80201818:	6090                	ld	a2,0(s1)
    8020181a:	00167793          	andi	a5,a2,1
    8020181e:	dbf5                	beqz	a5,80201812 <vmprint+0x6c>
    80201820:	bff1                	j	802017fc <vmprint+0x56>
      for (pte_t *pte2 = (pte_t *) pt2; pte2 < pt2 + capacity; pte2++) {
    80201822:	0aa1                	addi	s5,s5,8
    80201824:	056a8163          	beq	s5,s6,80201866 <vmprint+0xc0>
        if (*pte2 & PTE_V)
    80201828:	000ab603          	ld	a2,0(s5)
    8020182c:	00167793          	andi	a5,a2,1
    80201830:	dbed                	beqz	a5,80201822 <vmprint+0x7c>
          pagetable_t pt3 = (pagetable_t) PTE2PA(*pte2);
    80201832:	00a65493          	srli	s1,a2,0xa
    80201836:	04b2                	slli	s1,s1,0xc
    80201838:	89a6                	mv	s3,s1
          printf(".. ..%d: pte %p pa %p\n", pte2 - pt2, *pte2, pt3);
    8020183a:	419a85b3          	sub	a1,s5,s9
    8020183e:	86a6                	mv	a3,s1
    80201840:	858d                	srai	a1,a1,0x3
    80201842:	856e                	mv	a0,s11
    80201844:	fffff097          	auipc	ra,0xfffff
    80201848:	94c080e7          	jalr	-1716(ra) # 80200190 <printf>
          for (pte_t *pte3 = (pte_t *) pt3; pte3 < pt3 + capacity; pte3++)
    8020184c:	00848693          	addi	a3,s1,8
    80201850:	01848733          	add	a4,s1,s8
    80201854:	f8843783          	ld	a5,-120(s0)
    80201858:	00d77363          	bleu	a3,a4,8020185e <vmprint+0xb8>
    8020185c:	4785                	li	a5,1
    8020185e:	078e                	slli	a5,a5,0x3
    80201860:	00978933          	add	s2,a5,s1
    80201864:	bf55                	j	80201818 <vmprint+0x72>
  for (pte_t *pte = (pte_t *) pagetable; pte < pagetable + capacity; pte++) {
    80201866:	0ba1                	addi	s7,s7,8
    80201868:	05ab8763          	beq	s7,s10,802018b6 <vmprint+0x110>
    if (*pte & PTE_V)
    8020186c:	000bb603          	ld	a2,0(s7) # 1000 <BASE_ADDRESS-0x801ff000>
    80201870:	00167793          	andi	a5,a2,1
    80201874:	dbed                	beqz	a5,80201866 <vmprint+0xc0>
      pagetable_t pt2 = (pagetable_t) PTE2PA(*pte); 
    80201876:	00a65a93          	srli	s5,a2,0xa
    8020187a:	0ab2                	slli	s5,s5,0xc
    8020187c:	8cd6                	mv	s9,s5
      printf("..%d: pte %p pa %p\n", pte - pagetable, *pte, pt2);
    8020187e:	f8043783          	ld	a5,-128(s0)
    80201882:	40fb87b3          	sub	a5,s7,a5
    80201886:	86d6                	mv	a3,s5
    80201888:	4037d593          	srai	a1,a5,0x3
    8020188c:	00008517          	auipc	a0,0x8
    80201890:	c8450513          	addi	a0,a0,-892 # 80209510 <etext+0x510>
    80201894:	fffff097          	auipc	ra,0xfffff
    80201898:	8fc080e7          	jalr	-1796(ra) # 80200190 <printf>
      for (pte_t *pte2 = (pte_t *) pt2; pte2 < pt2 + capacity; pte2++) {
    8020189c:	018a86b3          	add	a3,s5,s8
    802018a0:	008a8713          	addi	a4,s5,8
    802018a4:	20000793          	li	a5,512
    802018a8:	00e6f363          	bleu	a4,a3,802018ae <vmprint+0x108>
    802018ac:	4785                	li	a5,1
    802018ae:	078e                	slli	a5,a5,0x3
    802018b0:	01578b33          	add	s6,a5,s5
    802018b4:	bf95                	j	80201828 <vmprint+0x82>
        }
      }
    }
  }
  return;
    802018b6:	70e6                	ld	ra,120(sp)
    802018b8:	7446                	ld	s0,112(sp)
    802018ba:	74a6                	ld	s1,104(sp)
    802018bc:	7906                	ld	s2,96(sp)
    802018be:	69e6                	ld	s3,88(sp)
    802018c0:	6a46                	ld	s4,80(sp)
    802018c2:	6aa6                	ld	s5,72(sp)
    802018c4:	6b06                	ld	s6,64(sp)
    802018c6:	7be2                	ld	s7,56(sp)
    802018c8:	7c42                	ld	s8,48(sp)
    802018ca:	7ca2                	ld	s9,40(sp)
    802018cc:	7d02                	ld	s10,32(sp)
    802018ce:	6de2                	ld	s11,24(sp)
    802018d0:	6109                	addi	sp,sp,128
    802018d2:	8082                	ret

00000000802018d4 <wakeup1>:

// Wake up p if it is sleeping in wait(); used by exit().
// Caller must hold p->lock.
static void
wakeup1(struct proc *p)
{
    802018d4:	1101                	addi	sp,sp,-32
    802018d6:	ec06                	sd	ra,24(sp)
    802018d8:	e822                	sd	s0,16(sp)
    802018da:	e426                	sd	s1,8(sp)
    802018dc:	1000                	addi	s0,sp,32
    802018de:	84aa                	mv	s1,a0
  if(!holding(&p->lock))
    802018e0:	fffff097          	auipc	ra,0xfffff
    802018e4:	dca080e7          	jalr	-566(ra) # 802006aa <holding>
    802018e8:	c909                	beqz	a0,802018fa <wakeup1+0x26>
    panic("wakeup1");
  if(p->chan == p && p->state == SLEEPING) {
    802018ea:	749c                	ld	a5,40(s1)
    802018ec:	00978f63          	beq	a5,s1,8020190a <wakeup1+0x36>
    p->state = RUNNABLE;
  }
}
    802018f0:	60e2                	ld	ra,24(sp)
    802018f2:	6442                	ld	s0,16(sp)
    802018f4:	64a2                	ld	s1,8(sp)
    802018f6:	6105                	addi	sp,sp,32
    802018f8:	8082                	ret
    panic("wakeup1");
    802018fa:	00008517          	auipc	a0,0x8
    802018fe:	c6650513          	addi	a0,a0,-922 # 80209560 <etext+0x560>
    80201902:	fffff097          	auipc	ra,0xfffff
    80201906:	844080e7          	jalr	-1980(ra) # 80200146 <panic>
  if(p->chan == p && p->state == SLEEPING) {
    8020190a:	4c98                	lw	a4,24(s1)
    8020190c:	4785                	li	a5,1
    8020190e:	fef711e3          	bne	a4,a5,802018f0 <wakeup1+0x1c>
    p->state = RUNNABLE;
    80201912:	4789                	li	a5,2
    80201914:	cc9c                	sw	a5,24(s1)
}
    80201916:	bfe9                	j	802018f0 <wakeup1+0x1c>

0000000080201918 <reg_info>:
void reg_info(void) {
    80201918:	1141                	addi	sp,sp,-16
    8020191a:	e406                	sd	ra,8(sp)
    8020191c:	e022                	sd	s0,0(sp)
    8020191e:	0800                	addi	s0,sp,16
  printf("register info: {\n");
    80201920:	00008517          	auipc	a0,0x8
    80201924:	c4850513          	addi	a0,a0,-952 # 80209568 <etext+0x568>
    80201928:	fffff097          	auipc	ra,0xfffff
    8020192c:	868080e7          	jalr	-1944(ra) # 80200190 <printf>
  asm volatile("csrr %0, sstatus" : "=r" (x) );
    80201930:	100025f3          	csrr	a1,sstatus
  printf("sstatus: %p\n", r_sstatus());
    80201934:	00008517          	auipc	a0,0x8
    80201938:	c4c50513          	addi	a0,a0,-948 # 80209580 <etext+0x580>
    8020193c:	fffff097          	auipc	ra,0xfffff
    80201940:	854080e7          	jalr	-1964(ra) # 80200190 <printf>
  asm volatile("csrr %0, sip" : "=r" (x) );
    80201944:	144025f3          	csrr	a1,sip
  printf("sip: %p\n", r_sip());
    80201948:	00008517          	auipc	a0,0x8
    8020194c:	c4850513          	addi	a0,a0,-952 # 80209590 <etext+0x590>
    80201950:	fffff097          	auipc	ra,0xfffff
    80201954:	840080e7          	jalr	-1984(ra) # 80200190 <printf>
  asm volatile("csrr %0, sie" : "=r" (x) );
    80201958:	104025f3          	csrr	a1,sie
  printf("sie: %p\n", r_sie());
    8020195c:	00008517          	auipc	a0,0x8
    80201960:	c4450513          	addi	a0,a0,-956 # 802095a0 <etext+0x5a0>
    80201964:	fffff097          	auipc	ra,0xfffff
    80201968:	82c080e7          	jalr	-2004(ra) # 80200190 <printf>
  asm volatile("csrr %0, sepc" : "=r" (x) );
    8020196c:	141025f3          	csrr	a1,sepc
  printf("sepc: %p\n", r_sepc());
    80201970:	00008517          	auipc	a0,0x8
    80201974:	c4050513          	addi	a0,a0,-960 # 802095b0 <etext+0x5b0>
    80201978:	fffff097          	auipc	ra,0xfffff
    8020197c:	818080e7          	jalr	-2024(ra) # 80200190 <printf>
  asm volatile("csrr %0, stvec" : "=r" (x) );
    80201980:	105025f3          	csrr	a1,stvec
  printf("stvec: %p\n", r_stvec());
    80201984:	00008517          	auipc	a0,0x8
    80201988:	c3c50513          	addi	a0,a0,-964 # 802095c0 <etext+0x5c0>
    8020198c:	fffff097          	auipc	ra,0xfffff
    80201990:	804080e7          	jalr	-2044(ra) # 80200190 <printf>
  asm volatile("csrr %0, satp" : "=r" (x) );
    80201994:	180025f3          	csrr	a1,satp
  printf("satp: %p\n", r_satp());
    80201998:	00008517          	auipc	a0,0x8
    8020199c:	c3850513          	addi	a0,a0,-968 # 802095d0 <etext+0x5d0>
    802019a0:	ffffe097          	auipc	ra,0xffffe
    802019a4:	7f0080e7          	jalr	2032(ra) # 80200190 <printf>
  asm volatile("csrr %0, scause" : "=r" (x) );
    802019a8:	142025f3          	csrr	a1,scause
  printf("scause: %p\n", r_scause());
    802019ac:	00008517          	auipc	a0,0x8
    802019b0:	c3450513          	addi	a0,a0,-972 # 802095e0 <etext+0x5e0>
    802019b4:	ffffe097          	auipc	ra,0xffffe
    802019b8:	7dc080e7          	jalr	2012(ra) # 80200190 <printf>
  asm volatile("csrr %0, stval" : "=r" (x) );
    802019bc:	143025f3          	csrr	a1,stval
  printf("stval: %p\n", r_stval());
    802019c0:	00008517          	auipc	a0,0x8
    802019c4:	c3050513          	addi	a0,a0,-976 # 802095f0 <etext+0x5f0>
    802019c8:	ffffe097          	auipc	ra,0xffffe
    802019cc:	7c8080e7          	jalr	1992(ra) # 80200190 <printf>
  asm volatile("mv %0, sp" : "=r" (x) );
    802019d0:	858a                	mv	a1,sp
  printf("sp: %p\n", r_sp());
    802019d2:	00008517          	auipc	a0,0x8
    802019d6:	c2e50513          	addi	a0,a0,-978 # 80209600 <etext+0x600>
    802019da:	ffffe097          	auipc	ra,0xffffe
    802019de:	7b6080e7          	jalr	1974(ra) # 80200190 <printf>
  asm volatile("mv %0, tp" : "=r" (x) );
    802019e2:	8592                	mv	a1,tp
  printf("tp: %p\n", r_tp());
    802019e4:	00008517          	auipc	a0,0x8
    802019e8:	c2450513          	addi	a0,a0,-988 # 80209608 <etext+0x608>
    802019ec:	ffffe097          	auipc	ra,0xffffe
    802019f0:	7a4080e7          	jalr	1956(ra) # 80200190 <printf>
  asm volatile("mv %0, ra" : "=r" (x) );
    802019f4:	8586                	mv	a1,ra
  printf("ra: %p\n", r_ra());
    802019f6:	00008517          	auipc	a0,0x8
    802019fa:	c1a50513          	addi	a0,a0,-998 # 80209610 <etext+0x610>
    802019fe:	ffffe097          	auipc	ra,0xffffe
    80201a02:	792080e7          	jalr	1938(ra) # 80200190 <printf>
  printf("}\n");
    80201a06:	00008517          	auipc	a0,0x8
    80201a0a:	c1250513          	addi	a0,a0,-1006 # 80209618 <etext+0x618>
    80201a0e:	ffffe097          	auipc	ra,0xffffe
    80201a12:	782080e7          	jalr	1922(ra) # 80200190 <printf>
}
    80201a16:	60a2                	ld	ra,8(sp)
    80201a18:	6402                	ld	s0,0(sp)
    80201a1a:	0141                	addi	sp,sp,16
    80201a1c:	8082                	ret

0000000080201a1e <procinit>:
{
    80201a1e:	7179                	addi	sp,sp,-48
    80201a20:	f406                	sd	ra,40(sp)
    80201a22:	f022                	sd	s0,32(sp)
    80201a24:	ec26                	sd	s1,24(sp)
    80201a26:	e84a                	sd	s2,16(sp)
    80201a28:	e44e                	sd	s3,8(sp)
    80201a2a:	1800                	addi	s0,sp,48
  initlock(&pid_lock, "nextpid");
    80201a2c:	00008597          	auipc	a1,0x8
    80201a30:	bf458593          	addi	a1,a1,-1036 # 80209620 <etext+0x620>
    80201a34:	00011517          	auipc	a0,0x11
    80201a38:	62c50513          	addi	a0,a0,1580 # 80213060 <pid_lock>
    80201a3c:	fffff097          	auipc	ra,0xfffff
    80201a40:	c58080e7          	jalr	-936(ra) # 80200694 <initlock>
  for(p = proc; p < &proc[NPROC]; p++) {
    80201a44:	00011497          	auipc	s1,0x11
    80201a48:	73c48493          	addi	s1,s1,1852 # 80213180 <proc>
      initlock(&p->lock, "proc");
    80201a4c:	00008997          	auipc	s3,0x8
    80201a50:	bdc98993          	addi	s3,s3,-1060 # 80209628 <etext+0x628>
  for(p = proc; p < &proc[NPROC]; p++) {
    80201a54:	00016917          	auipc	s2,0x16
    80201a58:	22c90913          	addi	s2,s2,556 # 80217c80 <bcache>
      initlock(&p->lock, "proc");
    80201a5c:	85ce                	mv	a1,s3
    80201a5e:	8526                	mv	a0,s1
    80201a60:	fffff097          	auipc	ra,0xfffff
    80201a64:	c34080e7          	jalr	-972(ra) # 80200694 <initlock>
  for(p = proc; p < &proc[NPROC]; p++) {
    80201a68:	18048493          	addi	s1,s1,384
    80201a6c:	ff2498e3          	bne	s1,s2,80201a5c <procinit+0x3e>
  memset(cpus, 0, sizeof(cpus));
    80201a70:	10000613          	li	a2,256
    80201a74:	4581                	li	a1,0
    80201a76:	00011517          	auipc	a0,0x11
    80201a7a:	60250513          	addi	a0,a0,1538 # 80213078 <cpus>
    80201a7e:	fffff097          	auipc	ra,0xfffff
    80201a82:	cf6080e7          	jalr	-778(ra) # 80200774 <memset>
}
    80201a86:	70a2                	ld	ra,40(sp)
    80201a88:	7402                	ld	s0,32(sp)
    80201a8a:	64e2                	ld	s1,24(sp)
    80201a8c:	6942                	ld	s2,16(sp)
    80201a8e:	69a2                	ld	s3,8(sp)
    80201a90:	6145                	addi	sp,sp,48
    80201a92:	8082                	ret

0000000080201a94 <cpuid>:
{
    80201a94:	1141                	addi	sp,sp,-16
    80201a96:	e422                	sd	s0,8(sp)
    80201a98:	0800                	addi	s0,sp,16
  asm volatile("mv %0, tp" : "=r" (x) );
    80201a9a:	8512                	mv	a0,tp
}
    80201a9c:	2501                	sext.w	a0,a0
    80201a9e:	6422                	ld	s0,8(sp)
    80201aa0:	0141                	addi	sp,sp,16
    80201aa2:	8082                	ret

0000000080201aa4 <mycpu>:
mycpu(void) {
    80201aa4:	1141                	addi	sp,sp,-16
    80201aa6:	e422                	sd	s0,8(sp)
    80201aa8:	0800                	addi	s0,sp,16
    80201aaa:	8792                	mv	a5,tp
  struct cpu *c = &cpus[id];
    80201aac:	2781                	sext.w	a5,a5
    80201aae:	079e                	slli	a5,a5,0x7
}
    80201ab0:	00011517          	auipc	a0,0x11
    80201ab4:	5c850513          	addi	a0,a0,1480 # 80213078 <cpus>
    80201ab8:	953e                	add	a0,a0,a5
    80201aba:	6422                	ld	s0,8(sp)
    80201abc:	0141                	addi	sp,sp,16
    80201abe:	8082                	ret

0000000080201ac0 <myproc>:
myproc(void) {
    80201ac0:	1101                	addi	sp,sp,-32
    80201ac2:	ec06                	sd	ra,24(sp)
    80201ac4:	e822                	sd	s0,16(sp)
    80201ac6:	e426                	sd	s1,8(sp)
    80201ac8:	1000                	addi	s0,sp,32
  push_off();
    80201aca:	fffff097          	auipc	ra,0xfffff
    80201ace:	b1e080e7          	jalr	-1250(ra) # 802005e8 <push_off>
    80201ad2:	8792                	mv	a5,tp
  struct proc *p = c->proc;
    80201ad4:	2781                	sext.w	a5,a5
    80201ad6:	079e                	slli	a5,a5,0x7
    80201ad8:	00011717          	auipc	a4,0x11
    80201adc:	58870713          	addi	a4,a4,1416 # 80213060 <pid_lock>
    80201ae0:	97ba                	add	a5,a5,a4
    80201ae2:	6f84                	ld	s1,24(a5)
  pop_off();
    80201ae4:	fffff097          	auipc	ra,0xfffff
    80201ae8:	b50080e7          	jalr	-1200(ra) # 80200634 <pop_off>
}
    80201aec:	8526                	mv	a0,s1
    80201aee:	60e2                	ld	ra,24(sp)
    80201af0:	6442                	ld	s0,16(sp)
    80201af2:	64a2                	ld	s1,8(sp)
    80201af4:	6105                	addi	sp,sp,32
    80201af6:	8082                	ret

0000000080201af8 <forkret>:
{
    80201af8:	1101                	addi	sp,sp,-32
    80201afa:	ec06                	sd	ra,24(sp)
    80201afc:	e822                	sd	s0,16(sp)
    80201afe:	e426                	sd	s1,8(sp)
    80201b00:	1000                	addi	s0,sp,32
  release(&myproc()->lock);
    80201b02:	00000097          	auipc	ra,0x0
    80201b06:	fbe080e7          	jalr	-66(ra) # 80201ac0 <myproc>
    80201b0a:	fffff097          	auipc	ra,0xfffff
    80201b0e:	c22080e7          	jalr	-990(ra) # 8020072c <release>
  if (first) {
    80201b12:	00008797          	auipc	a5,0x8
    80201b16:	4ee78793          	addi	a5,a5,1262 # 8020a000 <data_start>
    80201b1a:	439c                	lw	a5,0(a5)
    80201b1c:	eb91                	bnez	a5,80201b30 <forkret+0x38>
  usertrapret();
    80201b1e:	00001097          	auipc	ra,0x1
    80201b22:	ce4080e7          	jalr	-796(ra) # 80202802 <usertrapret>
}
    80201b26:	60e2                	ld	ra,24(sp)
    80201b28:	6442                	ld	s0,16(sp)
    80201b2a:	64a2                	ld	s1,8(sp)
    80201b2c:	6105                	addi	sp,sp,32
    80201b2e:	8082                	ret
    first = 0;
    80201b30:	00008797          	auipc	a5,0x8
    80201b34:	4c07a823          	sw	zero,1232(a5) # 8020a000 <data_start>
    fat32_init();
    80201b38:	00004097          	auipc	ra,0x4
    80201b3c:	dc8080e7          	jalr	-568(ra) # 80205900 <fat32_init>
    myproc()->cwd = ename("/");
    80201b40:	00000097          	auipc	ra,0x0
    80201b44:	f80080e7          	jalr	-128(ra) # 80201ac0 <myproc>
    80201b48:	84aa                	mv	s1,a0
    80201b4a:	00008517          	auipc	a0,0x8
    80201b4e:	ae650513          	addi	a0,a0,-1306 # 80209630 <etext+0x630>
    80201b52:	00005097          	auipc	ra,0x5
    80201b56:	00e080e7          	jalr	14(ra) # 80206b60 <ename>
    80201b5a:	14a4bc23          	sd	a0,344(s1)
    80201b5e:	b7c1                	j	80201b1e <forkret+0x26>

0000000080201b60 <allocpid>:
allocpid() {
    80201b60:	1101                	addi	sp,sp,-32
    80201b62:	ec06                	sd	ra,24(sp)
    80201b64:	e822                	sd	s0,16(sp)
    80201b66:	e426                	sd	s1,8(sp)
    80201b68:	e04a                	sd	s2,0(sp)
    80201b6a:	1000                	addi	s0,sp,32
  acquire(&pid_lock);
    80201b6c:	00011917          	auipc	s2,0x11
    80201b70:	4f490913          	addi	s2,s2,1268 # 80213060 <pid_lock>
    80201b74:	854a                	mv	a0,s2
    80201b76:	fffff097          	auipc	ra,0xfffff
    80201b7a:	b62080e7          	jalr	-1182(ra) # 802006d8 <acquire>
  pid = nextpid;
    80201b7e:	00008797          	auipc	a5,0x8
    80201b82:	48278793          	addi	a5,a5,1154 # 8020a000 <data_start>
    80201b86:	43c4                	lw	s1,4(a5)
  nextpid = nextpid + 1;
    80201b88:	0014871b          	addiw	a4,s1,1
    80201b8c:	c3d8                	sw	a4,4(a5)
  release(&pid_lock);
    80201b8e:	854a                	mv	a0,s2
    80201b90:	fffff097          	auipc	ra,0xfffff
    80201b94:	b9c080e7          	jalr	-1124(ra) # 8020072c <release>
}
    80201b98:	8526                	mv	a0,s1
    80201b9a:	60e2                	ld	ra,24(sp)
    80201b9c:	6442                	ld	s0,16(sp)
    80201b9e:	64a2                	ld	s1,8(sp)
    80201ba0:	6902                	ld	s2,0(sp)
    80201ba2:	6105                	addi	sp,sp,32
    80201ba4:	8082                	ret

0000000080201ba6 <proc_pagetable>:
{
    80201ba6:	1101                	addi	sp,sp,-32
    80201ba8:	ec06                	sd	ra,24(sp)
    80201baa:	e822                	sd	s0,16(sp)
    80201bac:	e426                	sd	s1,8(sp)
    80201bae:	e04a                	sd	s2,0(sp)
    80201bb0:	1000                	addi	s0,sp,32
    80201bb2:	892a                	mv	s2,a0
  pagetable = uvmcreate();
    80201bb4:	fffff097          	auipc	ra,0xfffff
    80201bb8:	386080e7          	jalr	902(ra) # 80200f3a <uvmcreate>
    80201bbc:	84aa                	mv	s1,a0
  if(pagetable == 0)
    80201bbe:	c121                	beqz	a0,80201bfe <proc_pagetable+0x58>
  if(mappages(pagetable, TRAMPOLINE, PGSIZE,
    80201bc0:	4729                	li	a4,10
    80201bc2:	00008697          	auipc	a3,0x8
    80201bc6:	67e6b683          	ld	a3,1662(a3) # 8020a240 <_GLOBAL_OFFSET_TABLE_+0x8>
    80201bca:	6605                	lui	a2,0x1
    80201bcc:	040005b7          	lui	a1,0x4000
    80201bd0:	15fd                	addi	a1,a1,-1
    80201bd2:	05b2                	slli	a1,a1,0xc
    80201bd4:	fffff097          	auipc	ra,0xfffff
    80201bd8:	0e6080e7          	jalr	230(ra) # 80200cba <mappages>
    80201bdc:	02054863          	bltz	a0,80201c0c <proc_pagetable+0x66>
  if(mappages(pagetable, TRAPFRAME, PGSIZE,
    80201be0:	4719                	li	a4,6
    80201be2:	06093683          	ld	a3,96(s2)
    80201be6:	6605                	lui	a2,0x1
    80201be8:	020005b7          	lui	a1,0x2000
    80201bec:	15fd                	addi	a1,a1,-1
    80201bee:	05b6                	slli	a1,a1,0xd
    80201bf0:	8526                	mv	a0,s1
    80201bf2:	fffff097          	auipc	ra,0xfffff
    80201bf6:	0c8080e7          	jalr	200(ra) # 80200cba <mappages>
    80201bfa:	02054163          	bltz	a0,80201c1c <proc_pagetable+0x76>
}
    80201bfe:	8526                	mv	a0,s1
    80201c00:	60e2                	ld	ra,24(sp)
    80201c02:	6442                	ld	s0,16(sp)
    80201c04:	64a2                	ld	s1,8(sp)
    80201c06:	6902                	ld	s2,0(sp)
    80201c08:	6105                	addi	sp,sp,32
    80201c0a:	8082                	ret
    uvmfree(pagetable, 0);
    80201c0c:	4581                	li	a1,0
    80201c0e:	8526                	mv	a0,s1
    80201c10:	fffff097          	auipc	ra,0xfffff
    80201c14:	5ae080e7          	jalr	1454(ra) # 802011be <uvmfree>
    return NULL;
    80201c18:	4481                	li	s1,0
    80201c1a:	b7d5                	j	80201bfe <proc_pagetable+0x58>
    vmunmap(pagetable, TRAMPOLINE, 1, 0);
    80201c1c:	4681                	li	a3,0
    80201c1e:	4605                	li	a2,1
    80201c20:	040005b7          	lui	a1,0x4000
    80201c24:	15fd                	addi	a1,a1,-1
    80201c26:	05b2                	slli	a1,a1,0xc
    80201c28:	8526                	mv	a0,s1
    80201c2a:	fffff097          	auipc	ra,0xfffff
    80201c2e:	24a080e7          	jalr	586(ra) # 80200e74 <vmunmap>
    uvmfree(pagetable, 0);
    80201c32:	4581                	li	a1,0
    80201c34:	8526                	mv	a0,s1
    80201c36:	fffff097          	auipc	ra,0xfffff
    80201c3a:	588080e7          	jalr	1416(ra) # 802011be <uvmfree>
    return NULL;
    80201c3e:	4481                	li	s1,0
    80201c40:	bf7d                	j	80201bfe <proc_pagetable+0x58>

0000000080201c42 <proc_freepagetable>:
{
    80201c42:	1101                	addi	sp,sp,-32
    80201c44:	ec06                	sd	ra,24(sp)
    80201c46:	e822                	sd	s0,16(sp)
    80201c48:	e426                	sd	s1,8(sp)
    80201c4a:	e04a                	sd	s2,0(sp)
    80201c4c:	1000                	addi	s0,sp,32
    80201c4e:	84aa                	mv	s1,a0
    80201c50:	892e                	mv	s2,a1
  vmunmap(pagetable, TRAMPOLINE, 1, 0);
    80201c52:	4681                	li	a3,0
    80201c54:	4605                	li	a2,1
    80201c56:	040005b7          	lui	a1,0x4000
    80201c5a:	15fd                	addi	a1,a1,-1
    80201c5c:	05b2                	slli	a1,a1,0xc
    80201c5e:	fffff097          	auipc	ra,0xfffff
    80201c62:	216080e7          	jalr	534(ra) # 80200e74 <vmunmap>
  vmunmap(pagetable, TRAPFRAME, 1, 0);
    80201c66:	4681                	li	a3,0
    80201c68:	4605                	li	a2,1
    80201c6a:	020005b7          	lui	a1,0x2000
    80201c6e:	15fd                	addi	a1,a1,-1
    80201c70:	05b6                	slli	a1,a1,0xd
    80201c72:	8526                	mv	a0,s1
    80201c74:	fffff097          	auipc	ra,0xfffff
    80201c78:	200080e7          	jalr	512(ra) # 80200e74 <vmunmap>
  uvmfree(pagetable, sz);
    80201c7c:	85ca                	mv	a1,s2
    80201c7e:	8526                	mv	a0,s1
    80201c80:	fffff097          	auipc	ra,0xfffff
    80201c84:	53e080e7          	jalr	1342(ra) # 802011be <uvmfree>
}
    80201c88:	60e2                	ld	ra,24(sp)
    80201c8a:	6442                	ld	s0,16(sp)
    80201c8c:	64a2                	ld	s1,8(sp)
    80201c8e:	6902                	ld	s2,0(sp)
    80201c90:	6105                	addi	sp,sp,32
    80201c92:	8082                	ret

0000000080201c94 <freeproc>:
{
    80201c94:	1101                	addi	sp,sp,-32
    80201c96:	ec06                	sd	ra,24(sp)
    80201c98:	e822                	sd	s0,16(sp)
    80201c9a:	e426                	sd	s1,8(sp)
    80201c9c:	1000                	addi	s0,sp,32
    80201c9e:	84aa                	mv	s1,a0
  if(p->trapframe)
    80201ca0:	7128                	ld	a0,96(a0)
    80201ca2:	c509                	beqz	a0,80201cac <freeproc+0x18>
    kfree((void*)p->trapframe);
    80201ca4:	ffffe097          	auipc	ra,0xffffe
    80201ca8:	7aa080e7          	jalr	1962(ra) # 8020044e <kfree>
  p->trapframe = 0;
    80201cac:	0604b023          	sd	zero,96(s1)
  if (p->kpagetable) {
    80201cb0:	6ca8                	ld	a0,88(s1)
    80201cb2:	c511                	beqz	a0,80201cbe <freeproc+0x2a>
    kvmfree(p->kpagetable, 1);
    80201cb4:	4585                	li	a1,1
    80201cb6:	00000097          	auipc	ra,0x0
    80201cba:	a2e080e7          	jalr	-1490(ra) # 802016e4 <kvmfree>
  p->kpagetable = 0;
    80201cbe:	0404bc23          	sd	zero,88(s1)
  if(p->pagetable)
    80201cc2:	68a8                	ld	a0,80(s1)
    80201cc4:	c511                	beqz	a0,80201cd0 <freeproc+0x3c>
    proc_freepagetable(p->pagetable, p->sz);
    80201cc6:	64ac                	ld	a1,72(s1)
    80201cc8:	00000097          	auipc	ra,0x0
    80201ccc:	f7a080e7          	jalr	-134(ra) # 80201c42 <proc_freepagetable>
  p->pagetable = 0;
    80201cd0:	0404b823          	sd	zero,80(s1)
  p->sz = 0;
    80201cd4:	0404b423          	sd	zero,72(s1)
  p->pid = 0;
    80201cd8:	0204ac23          	sw	zero,56(s1)
  p->parent = 0;
    80201cdc:	0204b023          	sd	zero,32(s1)
  p->name[0] = 0;
    80201ce0:	16048023          	sb	zero,352(s1)
  p->chan = 0;
    80201ce4:	0204b423          	sd	zero,40(s1)
  p->killed = 0;
    80201ce8:	0204a823          	sw	zero,48(s1)
  p->xstate = 0;
    80201cec:	0204aa23          	sw	zero,52(s1)
  p->state = UNUSED;
    80201cf0:	0004ac23          	sw	zero,24(s1)
}
    80201cf4:	60e2                	ld	ra,24(sp)
    80201cf6:	6442                	ld	s0,16(sp)
    80201cf8:	64a2                	ld	s1,8(sp)
    80201cfa:	6105                	addi	sp,sp,32
    80201cfc:	8082                	ret

0000000080201cfe <allocproc>:
{
    80201cfe:	1101                	addi	sp,sp,-32
    80201d00:	ec06                	sd	ra,24(sp)
    80201d02:	e822                	sd	s0,16(sp)
    80201d04:	e426                	sd	s1,8(sp)
    80201d06:	e04a                	sd	s2,0(sp)
    80201d08:	1000                	addi	s0,sp,32
  for(p = proc; p < &proc[NPROC]; p++) {
    80201d0a:	00011497          	auipc	s1,0x11
    80201d0e:	47648493          	addi	s1,s1,1142 # 80213180 <proc>
    80201d12:	00016917          	auipc	s2,0x16
    80201d16:	f6e90913          	addi	s2,s2,-146 # 80217c80 <bcache>
    acquire(&p->lock);
    80201d1a:	8526                	mv	a0,s1
    80201d1c:	fffff097          	auipc	ra,0xfffff
    80201d20:	9bc080e7          	jalr	-1604(ra) # 802006d8 <acquire>
    if(p->state == UNUSED) {
    80201d24:	4c9c                	lw	a5,24(s1)
    80201d26:	cf81                	beqz	a5,80201d3e <allocproc+0x40>
      release(&p->lock);
    80201d28:	8526                	mv	a0,s1
    80201d2a:	fffff097          	auipc	ra,0xfffff
    80201d2e:	a02080e7          	jalr	-1534(ra) # 8020072c <release>
  for(p = proc; p < &proc[NPROC]; p++) {
    80201d32:	18048493          	addi	s1,s1,384
    80201d36:	ff2492e3          	bne	s1,s2,80201d1a <allocproc+0x1c>
  return NULL;
    80201d3a:	4481                	li	s1,0
    80201d3c:	a895                	j	80201db0 <allocproc+0xb2>
  p->pid = allocpid();
    80201d3e:	00000097          	auipc	ra,0x0
    80201d42:	e22080e7          	jalr	-478(ra) # 80201b60 <allocpid>
    80201d46:	dc88                	sw	a0,56(s1)
  if((p->trapframe = (struct trapframe *)kalloc()) == NULL){
    80201d48:	fffff097          	auipc	ra,0xfffff
    80201d4c:	822080e7          	jalr	-2014(ra) # 8020056a <kalloc>
    80201d50:	892a                	mv	s2,a0
    80201d52:	f0a8                	sd	a0,96(s1)
    80201d54:	c52d                	beqz	a0,80201dbe <allocproc+0xc0>
  if ((p->pagetable = proc_pagetable(p)) == NULL ||
    80201d56:	8526                	mv	a0,s1
    80201d58:	00000097          	auipc	ra,0x0
    80201d5c:	e4e080e7          	jalr	-434(ra) # 80201ba6 <proc_pagetable>
    80201d60:	e8a8                	sd	a0,80(s1)
    80201d62:	c52d                	beqz	a0,80201dcc <allocproc+0xce>
      (p->kpagetable = proc_kpagetable()) == NULL) {
    80201d64:	00000097          	auipc	ra,0x0
    80201d68:	9da080e7          	jalr	-1574(ra) # 8020173e <proc_kpagetable>
    80201d6c:	eca8                	sd	a0,88(s1)
  if ((p->pagetable = proc_pagetable(p)) == NULL ||
    80201d6e:	cd39                	beqz	a0,80201dcc <allocproc+0xce>
  p->kstack = VKSTACK;
    80201d70:	0fb00793          	li	a5,251
    80201d74:	07fa                	slli	a5,a5,0x1e
    80201d76:	e0bc                	sd	a5,64(s1)
  memset(&p->context, 0, sizeof(p->context));
    80201d78:	07000613          	li	a2,112
    80201d7c:	4581                	li	a1,0
    80201d7e:	06848513          	addi	a0,s1,104
    80201d82:	fffff097          	auipc	ra,0xfffff
    80201d86:	9f2080e7          	jalr	-1550(ra) # 80200774 <memset>
  p->context.ra = (uint64)forkret;
    80201d8a:	00000797          	auipc	a5,0x0
    80201d8e:	d6e78793          	addi	a5,a5,-658 # 80201af8 <forkret>
    80201d92:	f4bc                	sd	a5,104(s1)
  p->context.sp = p->kstack + PGSIZE;
    80201d94:	60bc                	ld	a5,64(s1)
    80201d96:	6705                	lui	a4,0x1
    80201d98:	97ba                	add	a5,a5,a4
    80201d9a:	f8bc                	sd	a5,112(s1)
  p->qos = DEFAULT_QOS;
    80201d9c:	03200793          	li	a5,50
    80201da0:	16f4aa23          	sw	a5,372(s1)
  p->last_tick = get_tick();
    80201da4:	00003097          	auipc	ra,0x3
    80201da8:	416080e7          	jalr	1046(ra) # 802051ba <get_tick>
    80201dac:	16a4ac23          	sw	a0,376(s1)
}
    80201db0:	8526                	mv	a0,s1
    80201db2:	60e2                	ld	ra,24(sp)
    80201db4:	6442                	ld	s0,16(sp)
    80201db6:	64a2                	ld	s1,8(sp)
    80201db8:	6902                	ld	s2,0(sp)
    80201dba:	6105                	addi	sp,sp,32
    80201dbc:	8082                	ret
    release(&p->lock);
    80201dbe:	8526                	mv	a0,s1
    80201dc0:	fffff097          	auipc	ra,0xfffff
    80201dc4:	96c080e7          	jalr	-1684(ra) # 8020072c <release>
    return NULL;
    80201dc8:	84ca                	mv	s1,s2
    80201dca:	b7dd                	j	80201db0 <allocproc+0xb2>
    freeproc(p);
    80201dcc:	8526                	mv	a0,s1
    80201dce:	00000097          	auipc	ra,0x0
    80201dd2:	ec6080e7          	jalr	-314(ra) # 80201c94 <freeproc>
    release(&p->lock);
    80201dd6:	8526                	mv	a0,s1
    80201dd8:	fffff097          	auipc	ra,0xfffff
    80201ddc:	954080e7          	jalr	-1708(ra) # 8020072c <release>
    return NULL;
    80201de0:	4481                	li	s1,0
    80201de2:	b7f9                	j	80201db0 <allocproc+0xb2>

0000000080201de4 <userinit>:
{
    80201de4:	1101                	addi	sp,sp,-32
    80201de6:	ec06                	sd	ra,24(sp)
    80201de8:	e822                	sd	s0,16(sp)
    80201dea:	e426                	sd	s1,8(sp)
    80201dec:	1000                	addi	s0,sp,32
  p = allocproc();
    80201dee:	00000097          	auipc	ra,0x0
    80201df2:	f10080e7          	jalr	-240(ra) # 80201cfe <allocproc>
    80201df6:	84aa                	mv	s1,a0
  initproc = p;
    80201df8:	00011797          	auipc	a5,0x11
    80201dfc:	38a7b023          	sd	a0,896(a5) # 80213178 <initproc>
  uvminit(p->pagetable , p->kpagetable, initcode, sizeof(initcode));
    80201e00:	03400693          	li	a3,52
    80201e04:	00008617          	auipc	a2,0x8
    80201e08:	20460613          	addi	a2,a2,516 # 8020a008 <initcode>
    80201e0c:	6d2c                	ld	a1,88(a0)
    80201e0e:	6928                	ld	a0,80(a0)
    80201e10:	fffff097          	auipc	ra,0xfffff
    80201e14:	158080e7          	jalr	344(ra) # 80200f68 <uvminit>
  p->sz = PGSIZE;
    80201e18:	6785                	lui	a5,0x1
    80201e1a:	e4bc                	sd	a5,72(s1)
  p->trapframe->epc = 0x0;      // user program counter
    80201e1c:	70b8                	ld	a4,96(s1)
    80201e1e:	00073c23          	sd	zero,24(a4) # 1018 <BASE_ADDRESS-0x801fefe8>
  p->trapframe->sp = PGSIZE;  // user stack pointer
    80201e22:	70b8                	ld	a4,96(s1)
    80201e24:	fb1c                	sd	a5,48(a4)
  safestrcpy(p->name, "initcode", sizeof(p->name));
    80201e26:	4641                	li	a2,16
    80201e28:	00008597          	auipc	a1,0x8
    80201e2c:	81058593          	addi	a1,a1,-2032 # 80209638 <etext+0x638>
    80201e30:	16048513          	addi	a0,s1,352
    80201e34:	fffff097          	auipc	ra,0xfffff
    80201e38:	ab8080e7          	jalr	-1352(ra) # 802008ec <safestrcpy>
  p->state = RUNNABLE;
    80201e3c:	4789                	li	a5,2
    80201e3e:	cc9c                	sw	a5,24(s1)
  p->tmask = 0;
    80201e40:	1604a823          	sw	zero,368(s1)
  release(&p->lock);
    80201e44:	8526                	mv	a0,s1
    80201e46:	fffff097          	auipc	ra,0xfffff
    80201e4a:	8e6080e7          	jalr	-1818(ra) # 8020072c <release>
}
    80201e4e:	60e2                	ld	ra,24(sp)
    80201e50:	6442                	ld	s0,16(sp)
    80201e52:	64a2                	ld	s1,8(sp)
    80201e54:	6105                	addi	sp,sp,32
    80201e56:	8082                	ret

0000000080201e58 <growproc>:
{
    80201e58:	1101                	addi	sp,sp,-32
    80201e5a:	ec06                	sd	ra,24(sp)
    80201e5c:	e822                	sd	s0,16(sp)
    80201e5e:	e426                	sd	s1,8(sp)
    80201e60:	e04a                	sd	s2,0(sp)
    80201e62:	1000                	addi	s0,sp,32
    80201e64:	84aa                	mv	s1,a0
  struct proc *p = myproc();
    80201e66:	00000097          	auipc	ra,0x0
    80201e6a:	c5a080e7          	jalr	-934(ra) # 80201ac0 <myproc>
    80201e6e:	892a                	mv	s2,a0
  sz = p->sz;
    80201e70:	6530                	ld	a2,72(a0)
    80201e72:	0006051b          	sext.w	a0,a2
  if(n > 0){
    80201e76:	00904f63          	bgtz	s1,80201e94 <growproc+0x3c>
  } else if(n < 0){
    80201e7a:	0204cf63          	bltz	s1,80201eb8 <growproc+0x60>
  p->sz = sz;
    80201e7e:	1502                	slli	a0,a0,0x20
    80201e80:	9101                	srli	a0,a0,0x20
    80201e82:	04a93423          	sd	a0,72(s2)
  return 0;
    80201e86:	4501                	li	a0,0
}
    80201e88:	60e2                	ld	ra,24(sp)
    80201e8a:	6442                	ld	s0,16(sp)
    80201e8c:	64a2                	ld	s1,8(sp)
    80201e8e:	6902                	ld	s2,0(sp)
    80201e90:	6105                	addi	sp,sp,32
    80201e92:	8082                	ret
    if((sz = uvmalloc(p->pagetable, p->kpagetable, sz, sz + n)) == 0) {
    80201e94:	00a486bb          	addw	a3,s1,a0
    80201e98:	1682                	slli	a3,a3,0x20
    80201e9a:	9281                	srli	a3,a3,0x20
    80201e9c:	1602                	slli	a2,a2,0x20
    80201e9e:	9201                	srli	a2,a2,0x20
    80201ea0:	05893583          	ld	a1,88(s2)
    80201ea4:	05093503          	ld	a0,80(s2)
    80201ea8:	fffff097          	auipc	ra,0xfffff
    80201eac:	1b6080e7          	jalr	438(ra) # 8020105e <uvmalloc>
    80201eb0:	2501                	sext.w	a0,a0
    80201eb2:	f571                	bnez	a0,80201e7e <growproc+0x26>
      return -1;
    80201eb4:	557d                	li	a0,-1
    80201eb6:	bfc9                	j	80201e88 <growproc+0x30>
    sz = uvmdealloc(p->pagetable, p->kpagetable, sz, sz + n);
    80201eb8:	00a486bb          	addw	a3,s1,a0
    80201ebc:	1682                	slli	a3,a3,0x20
    80201ebe:	9281                	srli	a3,a3,0x20
    80201ec0:	1602                	slli	a2,a2,0x20
    80201ec2:	9201                	srli	a2,a2,0x20
    80201ec4:	05893583          	ld	a1,88(s2)
    80201ec8:	05093503          	ld	a0,80(s2)
    80201ecc:	fffff097          	auipc	ra,0xfffff
    80201ed0:	126080e7          	jalr	294(ra) # 80200ff2 <uvmdealloc>
    80201ed4:	2501                	sext.w	a0,a0
    80201ed6:	b765                	j	80201e7e <growproc+0x26>

0000000080201ed8 <fork>:
{
    80201ed8:	7179                	addi	sp,sp,-48
    80201eda:	f406                	sd	ra,40(sp)
    80201edc:	f022                	sd	s0,32(sp)
    80201ede:	ec26                	sd	s1,24(sp)
    80201ee0:	e84a                	sd	s2,16(sp)
    80201ee2:	e44e                	sd	s3,8(sp)
    80201ee4:	e052                	sd	s4,0(sp)
    80201ee6:	1800                	addi	s0,sp,48
  struct proc *p = myproc();
    80201ee8:	00000097          	auipc	ra,0x0
    80201eec:	bd8080e7          	jalr	-1064(ra) # 80201ac0 <myproc>
    80201ef0:	892a                	mv	s2,a0
  if((np = allocproc()) == NULL){
    80201ef2:	00000097          	auipc	ra,0x0
    80201ef6:	e0c080e7          	jalr	-500(ra) # 80201cfe <allocproc>
    80201efa:	c57d                	beqz	a0,80201fe8 <fork+0x110>
    80201efc:	89aa                	mv	s3,a0
  if(uvmcopy(p->pagetable, np->pagetable, np->kpagetable, p->sz) < 0){
    80201efe:	04893683          	ld	a3,72(s2)
    80201f02:	6d30                	ld	a2,88(a0)
    80201f04:	692c                	ld	a1,80(a0)
    80201f06:	05093503          	ld	a0,80(s2)
    80201f0a:	fffff097          	auipc	ra,0xfffff
    80201f0e:	2ec080e7          	jalr	748(ra) # 802011f6 <uvmcopy>
    80201f12:	04054c63          	bltz	a0,80201f6a <fork+0x92>
  np->sz = p->sz;
    80201f16:	04893783          	ld	a5,72(s2)
    80201f1a:	04f9b423          	sd	a5,72(s3)
  np->parent = p;
    80201f1e:	0329b023          	sd	s2,32(s3)
  np->tmask = p->tmask;
    80201f22:	17092783          	lw	a5,368(s2)
    80201f26:	16f9a823          	sw	a5,368(s3)
  *(np->trapframe) = *(p->trapframe);
    80201f2a:	06093683          	ld	a3,96(s2)
    80201f2e:	87b6                	mv	a5,a3
    80201f30:	0609b703          	ld	a4,96(s3)
    80201f34:	12068693          	addi	a3,a3,288
    80201f38:	0007b803          	ld	a6,0(a5) # 1000 <BASE_ADDRESS-0x801ff000>
    80201f3c:	6788                	ld	a0,8(a5)
    80201f3e:	6b8c                	ld	a1,16(a5)
    80201f40:	6f90                	ld	a2,24(a5)
    80201f42:	01073023          	sd	a6,0(a4)
    80201f46:	e708                	sd	a0,8(a4)
    80201f48:	eb0c                	sd	a1,16(a4)
    80201f4a:	ef10                	sd	a2,24(a4)
    80201f4c:	02078793          	addi	a5,a5,32
    80201f50:	02070713          	addi	a4,a4,32
    80201f54:	fed792e3          	bne	a5,a3,80201f38 <fork+0x60>
  np->trapframe->a0 = 0;
    80201f58:	0609b783          	ld	a5,96(s3)
    80201f5c:	0607b823          	sd	zero,112(a5)
    80201f60:	0d800493          	li	s1,216
  for(i = 0; i < NOFILE; i++)
    80201f64:	15800a13          	li	s4,344
    80201f68:	a03d                	j	80201f96 <fork+0xbe>
    freeproc(np);
    80201f6a:	854e                	mv	a0,s3
    80201f6c:	00000097          	auipc	ra,0x0
    80201f70:	d28080e7          	jalr	-728(ra) # 80201c94 <freeproc>
    release(&np->lock);
    80201f74:	854e                	mv	a0,s3
    80201f76:	ffffe097          	auipc	ra,0xffffe
    80201f7a:	7b6080e7          	jalr	1974(ra) # 8020072c <release>
    return -1;
    80201f7e:	54fd                	li	s1,-1
    80201f80:	a899                	j	80201fd6 <fork+0xfe>
      np->ofile[i] = filedup(p->ofile[i]);
    80201f82:	00002097          	auipc	ra,0x2
    80201f86:	9ca080e7          	jalr	-1590(ra) # 8020394c <filedup>
    80201f8a:	009987b3          	add	a5,s3,s1
    80201f8e:	e388                	sd	a0,0(a5)
  for(i = 0; i < NOFILE; i++)
    80201f90:	04a1                	addi	s1,s1,8
    80201f92:	01448763          	beq	s1,s4,80201fa0 <fork+0xc8>
    if(p->ofile[i])
    80201f96:	009907b3          	add	a5,s2,s1
    80201f9a:	6388                	ld	a0,0(a5)
    80201f9c:	f17d                	bnez	a0,80201f82 <fork+0xaa>
    80201f9e:	bfcd                	j	80201f90 <fork+0xb8>
  np->cwd = edup(p->cwd);
    80201fa0:	15893503          	ld	a0,344(s2)
    80201fa4:	00004097          	auipc	ra,0x4
    80201fa8:	1b2080e7          	jalr	434(ra) # 80206156 <edup>
    80201fac:	14a9bc23          	sd	a0,344(s3)
  safestrcpy(np->name, p->name, sizeof(p->name));
    80201fb0:	4641                	li	a2,16
    80201fb2:	16090593          	addi	a1,s2,352
    80201fb6:	16098513          	addi	a0,s3,352
    80201fba:	fffff097          	auipc	ra,0xfffff
    80201fbe:	932080e7          	jalr	-1742(ra) # 802008ec <safestrcpy>
  pid = np->pid;
    80201fc2:	0389a483          	lw	s1,56(s3)
  np->state = RUNNABLE;
    80201fc6:	4789                	li	a5,2
    80201fc8:	00f9ac23          	sw	a5,24(s3)
  release(&np->lock);
    80201fcc:	854e                	mv	a0,s3
    80201fce:	ffffe097          	auipc	ra,0xffffe
    80201fd2:	75e080e7          	jalr	1886(ra) # 8020072c <release>
}
    80201fd6:	8526                	mv	a0,s1
    80201fd8:	70a2                	ld	ra,40(sp)
    80201fda:	7402                	ld	s0,32(sp)
    80201fdc:	64e2                	ld	s1,24(sp)
    80201fde:	6942                	ld	s2,16(sp)
    80201fe0:	69a2                	ld	s3,8(sp)
    80201fe2:	6a02                	ld	s4,0(sp)
    80201fe4:	6145                	addi	sp,sp,48
    80201fe6:	8082                	ret
    return -1;
    80201fe8:	54fd                	li	s1,-1
    80201fea:	b7f5                	j	80201fd6 <fork+0xfe>

0000000080201fec <reparent>:
{
    80201fec:	7179                	addi	sp,sp,-48
    80201fee:	f406                	sd	ra,40(sp)
    80201ff0:	f022                	sd	s0,32(sp)
    80201ff2:	ec26                	sd	s1,24(sp)
    80201ff4:	e84a                	sd	s2,16(sp)
    80201ff6:	e44e                	sd	s3,8(sp)
    80201ff8:	e052                	sd	s4,0(sp)
    80201ffa:	1800                	addi	s0,sp,48
    80201ffc:	89aa                	mv	s3,a0
  for(pp = proc; pp < &proc[NPROC]; pp++){
    80201ffe:	00011497          	auipc	s1,0x11
    80202002:	18248493          	addi	s1,s1,386 # 80213180 <proc>
      pp->parent = initproc;
    80202006:	00011a17          	auipc	s4,0x11
    8020200a:	05aa0a13          	addi	s4,s4,90 # 80213060 <pid_lock>
  for(pp = proc; pp < &proc[NPROC]; pp++){
    8020200e:	00016917          	auipc	s2,0x16
    80202012:	c7290913          	addi	s2,s2,-910 # 80217c80 <bcache>
    80202016:	a029                	j	80202020 <reparent+0x34>
    80202018:	18048493          	addi	s1,s1,384
    8020201c:	03248363          	beq	s1,s2,80202042 <reparent+0x56>
    if(pp->parent == p){
    80202020:	709c                	ld	a5,32(s1)
    80202022:	ff379be3          	bne	a5,s3,80202018 <reparent+0x2c>
      acquire(&pp->lock);
    80202026:	8526                	mv	a0,s1
    80202028:	ffffe097          	auipc	ra,0xffffe
    8020202c:	6b0080e7          	jalr	1712(ra) # 802006d8 <acquire>
      pp->parent = initproc;
    80202030:	118a3783          	ld	a5,280(s4)
    80202034:	f09c                	sd	a5,32(s1)
      release(&pp->lock);
    80202036:	8526                	mv	a0,s1
    80202038:	ffffe097          	auipc	ra,0xffffe
    8020203c:	6f4080e7          	jalr	1780(ra) # 8020072c <release>
    80202040:	bfe1                	j	80202018 <reparent+0x2c>
}
    80202042:	70a2                	ld	ra,40(sp)
    80202044:	7402                	ld	s0,32(sp)
    80202046:	64e2                	ld	s1,24(sp)
    80202048:	6942                	ld	s2,16(sp)
    8020204a:	69a2                	ld	s3,8(sp)
    8020204c:	6a02                	ld	s4,0(sp)
    8020204e:	6145                	addi	sp,sp,48
    80202050:	8082                	ret

0000000080202052 <scheduler>:
{
    80202052:	7119                	addi	sp,sp,-128
    80202054:	fc86                	sd	ra,120(sp)
    80202056:	f8a2                	sd	s0,112(sp)
    80202058:	f4a6                	sd	s1,104(sp)
    8020205a:	f0ca                	sd	s2,96(sp)
    8020205c:	ecce                	sd	s3,88(sp)
    8020205e:	e8d2                	sd	s4,80(sp)
    80202060:	e4d6                	sd	s5,72(sp)
    80202062:	e0da                	sd	s6,64(sp)
    80202064:	fc5e                	sd	s7,56(sp)
    80202066:	f862                	sd	s8,48(sp)
    80202068:	f466                	sd	s9,40(sp)
    8020206a:	f06a                	sd	s10,32(sp)
    8020206c:	ec6e                	sd	s11,24(sp)
    8020206e:	0100                	addi	s0,sp,128
    80202070:	8792                	mv	a5,tp
  int id = r_tp();
    80202072:	2781                	sext.w	a5,a5
  c->proc = 0;
    80202074:	00779693          	slli	a3,a5,0x7
    80202078:	00011717          	auipc	a4,0x11
    8020207c:	fe870713          	addi	a4,a4,-24 # 80213060 <pid_lock>
    80202080:	9736                	add	a4,a4,a3
    80202082:	00073c23          	sd	zero,24(a4)
      swtch(&c->context, &maxProc->context);
    80202086:	00011717          	auipc	a4,0x11
    8020208a:	ffa70713          	addi	a4,a4,-6 # 80213080 <cpus+0x8>
    8020208e:	9736                	add	a4,a4,a3
    80202090:	f8e43423          	sd	a4,-120(s0)
    struct proc *maxProc = NULL;
    80202094:	4d01                	li	s10,0
    int maxQos = -1;
    80202096:	5cfd                	li	s9,-1
    for(p = proc; p < &proc[NPROC]; p++) {
    80202098:	00016997          	auipc	s3,0x16
    8020209c:	be898993          	addi	s3,s3,-1048 # 80217c80 <bcache>
      c->proc = maxProc;
    802020a0:	00011b97          	auipc	s7,0x11
    802020a4:	fc0b8b93          	addi	s7,s7,-64 # 80213060 <pid_lock>
    802020a8:	9bb6                	add	s7,s7,a3
      w_satp(MAKE_SATP(maxProc->kpagetable));
    802020aa:	03fc9c13          	slli	s8,s9,0x3f
      w_satp(MAKE_SATP(kernel_pagetable));
    802020ae:	00008d97          	auipc	s11,0x8
    802020b2:	1d2dbd83          	ld	s11,466(s11) # 8020a280 <_GLOBAL_OFFSET_TABLE_+0x48>
    802020b6:	a06d                	j	80202160 <scheduler+0x10e>
        release(&p->lock);
    802020b8:	8526                	mv	a0,s1
    802020ba:	ffffe097          	auipc	ra,0xffffe
    802020be:	672080e7          	jalr	1650(ra) # 8020072c <release>
    for(p = proc; p < &proc[NPROC]; p++) {
    802020c2:	18048493          	addi	s1,s1,384
    802020c6:	05348363          	beq	s1,s3,8020210c <scheduler+0xba>
      acquire(&p->lock);
    802020ca:	8526                	mv	a0,s1
    802020cc:	ffffe097          	auipc	ra,0xffffe
    802020d0:	60c080e7          	jalr	1548(ra) # 802006d8 <acquire>
      if(p->state == RUNNABLE && 10 * p->qos + (cur_tick - p->last_tick) > maxQos) {
    802020d4:	4c9c                	lw	a5,24(s1)
    802020d6:	ff2791e3          	bne	a5,s2,802020b8 <scheduler+0x66>
    802020da:	1744a703          	lw	a4,372(s1)
    802020de:	0027179b          	slliw	a5,a4,0x2
    802020e2:	9fb9                	addw	a5,a5,a4
    802020e4:	0017979b          	slliw	a5,a5,0x1
    802020e8:	1784a703          	lw	a4,376(s1)
    802020ec:	40eb073b          	subw	a4,s6,a4
    802020f0:	9fb9                	addw	a5,a5,a4
    802020f2:	fcfa53e3          	ble	a5,s4,802020b8 <scheduler+0x66>
        if(maxProc != NULL) {
    802020f6:	000a8763          	beqz	s5,80202104 <scheduler+0xb2>
          release(&maxProc->lock);
    802020fa:	8556                	mv	a0,s5
    802020fc:	ffffe097          	auipc	ra,0xffffe
    80202100:	630080e7          	jalr	1584(ra) # 8020072c <release>
        maxQos = p->qos;
    80202104:	1744aa03          	lw	s4,372(s1)
        maxProc = p;
    80202108:	8aa6                	mv	s5,s1
    8020210a:	bf65                	j	802020c2 <scheduler+0x70>
    if(maxProc != NULL) {
    8020210c:	060a8d63          	beqz	s5,80202186 <scheduler+0x134>
      maxProc->state = RUNNING;
    80202110:	478d                	li	a5,3
    80202112:	00faac23          	sw	a5,24(s5)
      c->proc = maxProc;
    80202116:	015bbc23          	sd	s5,24(s7)
      maxProc->last_tick = cur_tick; // renew the tick last time using this process
    8020211a:	176aac23          	sw	s6,376(s5)
      w_satp(MAKE_SATP(maxProc->kpagetable));
    8020211e:	058ab783          	ld	a5,88(s5)
    80202122:	83b1                	srli	a5,a5,0xc
    80202124:	0187e7b3          	or	a5,a5,s8
  asm volatile("csrw satp, %0" : : "r" (x));
    80202128:	18079073          	csrw	satp,a5
  asm volatile("sfence.vma");
    8020212c:	12000073          	sfence.vma
      swtch(&c->context, &maxProc->context);
    80202130:	068a8593          	addi	a1,s5,104
    80202134:	f8843503          	ld	a0,-120(s0)
    80202138:	00000097          	auipc	ra,0x0
    8020213c:	624080e7          	jalr	1572(ra) # 8020275c <swtch>
      w_satp(MAKE_SATP(kernel_pagetable));
    80202140:	000db783          	ld	a5,0(s11)
    80202144:	83b1                	srli	a5,a5,0xc
    80202146:	0187e7b3          	or	a5,a5,s8
  asm volatile("csrw satp, %0" : : "r" (x));
    8020214a:	18079073          	csrw	satp,a5
  asm volatile("sfence.vma");
    8020214e:	12000073          	sfence.vma
      c->proc = 0;
    80202152:	000bbc23          	sd	zero,24(s7)
      release(&maxProc->lock);
    80202156:	8556                	mv	a0,s5
    80202158:	ffffe097          	auipc	ra,0xffffe
    8020215c:	5d4080e7          	jalr	1492(ra) # 8020072c <release>
  asm volatile("csrr %0, sstatus" : "=r" (x) );
    80202160:	100027f3          	csrr	a5,sstatus
  w_sstatus(r_sstatus() | SSTATUS_SIE);
    80202164:	0027e793          	ori	a5,a5,2
  asm volatile("csrw sstatus, %0" : : "r" (x));
    80202168:	10079073          	csrw	sstatus,a5
    int cur_tick = get_tick();
    8020216c:	00003097          	auipc	ra,0x3
    80202170:	04e080e7          	jalr	78(ra) # 802051ba <get_tick>
    80202174:	8b2a                	mv	s6,a0
    struct proc *maxProc = NULL;
    80202176:	8aea                	mv	s5,s10
    int maxQos = -1;
    80202178:	8a66                	mv	s4,s9
    for(p = proc; p < &proc[NPROC]; p++) {
    8020217a:	00011497          	auipc	s1,0x11
    8020217e:	00648493          	addi	s1,s1,6 # 80213180 <proc>
      if(p->state == RUNNABLE && 10 * p->qos + (cur_tick - p->last_tick) > maxQos) {
    80202182:	4909                	li	s2,2
    80202184:	b799                	j	802020ca <scheduler+0x78>
  asm volatile("csrr %0, sstatus" : "=r" (x) );
    80202186:	100027f3          	csrr	a5,sstatus
  w_sstatus(r_sstatus() | SSTATUS_SIE);
    8020218a:	0027e793          	ori	a5,a5,2
  asm volatile("csrw sstatus, %0" : : "r" (x));
    8020218e:	10079073          	csrw	sstatus,a5
      asm volatile("wfi");
    80202192:	10500073          	wfi
    80202196:	b7e9                	j	80202160 <scheduler+0x10e>

0000000080202198 <sched>:
{
    80202198:	7179                	addi	sp,sp,-48
    8020219a:	f406                	sd	ra,40(sp)
    8020219c:	f022                	sd	s0,32(sp)
    8020219e:	ec26                	sd	s1,24(sp)
    802021a0:	e84a                	sd	s2,16(sp)
    802021a2:	e44e                	sd	s3,8(sp)
    802021a4:	1800                	addi	s0,sp,48
  struct proc *p = myproc();
    802021a6:	00000097          	auipc	ra,0x0
    802021aa:	91a080e7          	jalr	-1766(ra) # 80201ac0 <myproc>
    802021ae:	892a                	mv	s2,a0
  if(!holding(&p->lock))
    802021b0:	ffffe097          	auipc	ra,0xffffe
    802021b4:	4fa080e7          	jalr	1274(ra) # 802006aa <holding>
    802021b8:	cd25                	beqz	a0,80202230 <sched+0x98>
  asm volatile("mv %0, tp" : "=r" (x) );
    802021ba:	8792                	mv	a5,tp
  if(mycpu()->noff != 1)
    802021bc:	2781                	sext.w	a5,a5
    802021be:	079e                	slli	a5,a5,0x7
    802021c0:	00011717          	auipc	a4,0x11
    802021c4:	ea070713          	addi	a4,a4,-352 # 80213060 <pid_lock>
    802021c8:	97ba                	add	a5,a5,a4
    802021ca:	0907a703          	lw	a4,144(a5)
    802021ce:	4785                	li	a5,1
    802021d0:	06f71863          	bne	a4,a5,80202240 <sched+0xa8>
  if(p->state == RUNNING)
    802021d4:	01892703          	lw	a4,24(s2)
    802021d8:	478d                	li	a5,3
    802021da:	06f70b63          	beq	a4,a5,80202250 <sched+0xb8>
  asm volatile("csrr %0, sstatus" : "=r" (x) );
    802021de:	100027f3          	csrr	a5,sstatus
  return (x & SSTATUS_SIE) != 0;
    802021e2:	8b89                	andi	a5,a5,2
  if(intr_get())
    802021e4:	efb5                	bnez	a5,80202260 <sched+0xc8>
  asm volatile("mv %0, tp" : "=r" (x) );
    802021e6:	8792                	mv	a5,tp
  intena = mycpu()->intena;
    802021e8:	00011497          	auipc	s1,0x11
    802021ec:	e7848493          	addi	s1,s1,-392 # 80213060 <pid_lock>
    802021f0:	2781                	sext.w	a5,a5
    802021f2:	079e                	slli	a5,a5,0x7
    802021f4:	97a6                	add	a5,a5,s1
    802021f6:	0947a983          	lw	s3,148(a5)
    802021fa:	8792                	mv	a5,tp
  swtch(&p->context, &mycpu()->context);
    802021fc:	2781                	sext.w	a5,a5
    802021fe:	079e                	slli	a5,a5,0x7
    80202200:	00011597          	auipc	a1,0x11
    80202204:	e8058593          	addi	a1,a1,-384 # 80213080 <cpus+0x8>
    80202208:	95be                	add	a1,a1,a5
    8020220a:	06890513          	addi	a0,s2,104
    8020220e:	00000097          	auipc	ra,0x0
    80202212:	54e080e7          	jalr	1358(ra) # 8020275c <swtch>
    80202216:	8792                	mv	a5,tp
  mycpu()->intena = intena;
    80202218:	2781                	sext.w	a5,a5
    8020221a:	079e                	slli	a5,a5,0x7
    8020221c:	97a6                	add	a5,a5,s1
    8020221e:	0937aa23          	sw	s3,148(a5)
}
    80202222:	70a2                	ld	ra,40(sp)
    80202224:	7402                	ld	s0,32(sp)
    80202226:	64e2                	ld	s1,24(sp)
    80202228:	6942                	ld	s2,16(sp)
    8020222a:	69a2                	ld	s3,8(sp)
    8020222c:	6145                	addi	sp,sp,48
    8020222e:	8082                	ret
    panic("sched p->lock");
    80202230:	00007517          	auipc	a0,0x7
    80202234:	41850513          	addi	a0,a0,1048 # 80209648 <etext+0x648>
    80202238:	ffffe097          	auipc	ra,0xffffe
    8020223c:	f0e080e7          	jalr	-242(ra) # 80200146 <panic>
    panic("sched locks");
    80202240:	00007517          	auipc	a0,0x7
    80202244:	41850513          	addi	a0,a0,1048 # 80209658 <etext+0x658>
    80202248:	ffffe097          	auipc	ra,0xffffe
    8020224c:	efe080e7          	jalr	-258(ra) # 80200146 <panic>
    panic("sched running");
    80202250:	00007517          	auipc	a0,0x7
    80202254:	41850513          	addi	a0,a0,1048 # 80209668 <etext+0x668>
    80202258:	ffffe097          	auipc	ra,0xffffe
    8020225c:	eee080e7          	jalr	-274(ra) # 80200146 <panic>
    panic("sched interruptible");
    80202260:	00007517          	auipc	a0,0x7
    80202264:	41850513          	addi	a0,a0,1048 # 80209678 <etext+0x678>
    80202268:	ffffe097          	auipc	ra,0xffffe
    8020226c:	ede080e7          	jalr	-290(ra) # 80200146 <panic>

0000000080202270 <exit>:
{
    80202270:	7179                	addi	sp,sp,-48
    80202272:	f406                	sd	ra,40(sp)
    80202274:	f022                	sd	s0,32(sp)
    80202276:	ec26                	sd	s1,24(sp)
    80202278:	e84a                	sd	s2,16(sp)
    8020227a:	e44e                	sd	s3,8(sp)
    8020227c:	e052                	sd	s4,0(sp)
    8020227e:	1800                	addi	s0,sp,48
    80202280:	8a2a                	mv	s4,a0
  struct proc *p = myproc();
    80202282:	00000097          	auipc	ra,0x0
    80202286:	83e080e7          	jalr	-1986(ra) # 80201ac0 <myproc>
    8020228a:	89aa                	mv	s3,a0
  if(p == initproc)
    8020228c:	00011797          	auipc	a5,0x11
    80202290:	dd478793          	addi	a5,a5,-556 # 80213060 <pid_lock>
    80202294:	1187b783          	ld	a5,280(a5)
    80202298:	0d850493          	addi	s1,a0,216
    8020229c:	15850913          	addi	s2,a0,344
    802022a0:	02a79363          	bne	a5,a0,802022c6 <exit+0x56>
    panic("init exiting");
    802022a4:	00007517          	auipc	a0,0x7
    802022a8:	3ec50513          	addi	a0,a0,1004 # 80209690 <etext+0x690>
    802022ac:	ffffe097          	auipc	ra,0xffffe
    802022b0:	e9a080e7          	jalr	-358(ra) # 80200146 <panic>
      fileclose(f);
    802022b4:	00001097          	auipc	ra,0x1
    802022b8:	6ea080e7          	jalr	1770(ra) # 8020399e <fileclose>
      p->ofile[fd] = 0;
    802022bc:	0004b023          	sd	zero,0(s1)
  for(int fd = 0; fd < NOFILE; fd++){
    802022c0:	04a1                	addi	s1,s1,8
    802022c2:	01248563          	beq	s1,s2,802022cc <exit+0x5c>
    if(p->ofile[fd]){
    802022c6:	6088                	ld	a0,0(s1)
    802022c8:	f575                	bnez	a0,802022b4 <exit+0x44>
    802022ca:	bfdd                	j	802022c0 <exit+0x50>
  eput(p->cwd);
    802022cc:	1589b503          	ld	a0,344(s3)
    802022d0:	00004097          	auipc	ra,0x4
    802022d4:	164080e7          	jalr	356(ra) # 80206434 <eput>
  p->cwd = 0;
    802022d8:	1409bc23          	sd	zero,344(s3)
  acquire(&initproc->lock);
    802022dc:	00011497          	auipc	s1,0x11
    802022e0:	d8448493          	addi	s1,s1,-636 # 80213060 <pid_lock>
    802022e4:	1184b503          	ld	a0,280(s1)
    802022e8:	ffffe097          	auipc	ra,0xffffe
    802022ec:	3f0080e7          	jalr	1008(ra) # 802006d8 <acquire>
  wakeup1(initproc);
    802022f0:	1184b503          	ld	a0,280(s1)
    802022f4:	fffff097          	auipc	ra,0xfffff
    802022f8:	5e0080e7          	jalr	1504(ra) # 802018d4 <wakeup1>
  release(&initproc->lock);
    802022fc:	1184b503          	ld	a0,280(s1)
    80202300:	ffffe097          	auipc	ra,0xffffe
    80202304:	42c080e7          	jalr	1068(ra) # 8020072c <release>
  acquire(&p->lock);
    80202308:	854e                	mv	a0,s3
    8020230a:	ffffe097          	auipc	ra,0xffffe
    8020230e:	3ce080e7          	jalr	974(ra) # 802006d8 <acquire>
  struct proc *original_parent = p->parent;
    80202312:	0209b483          	ld	s1,32(s3)
  release(&p->lock);
    80202316:	854e                	mv	a0,s3
    80202318:	ffffe097          	auipc	ra,0xffffe
    8020231c:	414080e7          	jalr	1044(ra) # 8020072c <release>
  acquire(&original_parent->lock);
    80202320:	8526                	mv	a0,s1
    80202322:	ffffe097          	auipc	ra,0xffffe
    80202326:	3b6080e7          	jalr	950(ra) # 802006d8 <acquire>
  acquire(&p->lock);
    8020232a:	854e                	mv	a0,s3
    8020232c:	ffffe097          	auipc	ra,0xffffe
    80202330:	3ac080e7          	jalr	940(ra) # 802006d8 <acquire>
  reparent(p);
    80202334:	854e                	mv	a0,s3
    80202336:	00000097          	auipc	ra,0x0
    8020233a:	cb6080e7          	jalr	-842(ra) # 80201fec <reparent>
  wakeup1(original_parent);
    8020233e:	8526                	mv	a0,s1
    80202340:	fffff097          	auipc	ra,0xfffff
    80202344:	594080e7          	jalr	1428(ra) # 802018d4 <wakeup1>
  p->xstate = status;
    80202348:	0349aa23          	sw	s4,52(s3)
  p->state = ZOMBIE;
    8020234c:	4791                	li	a5,4
    8020234e:	00f9ac23          	sw	a5,24(s3)
  release(&original_parent->lock);
    80202352:	8526                	mv	a0,s1
    80202354:	ffffe097          	auipc	ra,0xffffe
    80202358:	3d8080e7          	jalr	984(ra) # 8020072c <release>
  sched();
    8020235c:	00000097          	auipc	ra,0x0
    80202360:	e3c080e7          	jalr	-452(ra) # 80202198 <sched>
  panic("zombie exit");
    80202364:	00007517          	auipc	a0,0x7
    80202368:	33c50513          	addi	a0,a0,828 # 802096a0 <etext+0x6a0>
    8020236c:	ffffe097          	auipc	ra,0xffffe
    80202370:	dda080e7          	jalr	-550(ra) # 80200146 <panic>

0000000080202374 <yield>:
{
    80202374:	1101                	addi	sp,sp,-32
    80202376:	ec06                	sd	ra,24(sp)
    80202378:	e822                	sd	s0,16(sp)
    8020237a:	e426                	sd	s1,8(sp)
    8020237c:	1000                	addi	s0,sp,32
  struct proc *p = myproc();
    8020237e:	fffff097          	auipc	ra,0xfffff
    80202382:	742080e7          	jalr	1858(ra) # 80201ac0 <myproc>
    80202386:	84aa                	mv	s1,a0
  acquire(&p->lock);
    80202388:	ffffe097          	auipc	ra,0xffffe
    8020238c:	350080e7          	jalr	848(ra) # 802006d8 <acquire>
  p->state = RUNNABLE;
    80202390:	4789                	li	a5,2
    80202392:	cc9c                	sw	a5,24(s1)
  sched();
    80202394:	00000097          	auipc	ra,0x0
    80202398:	e04080e7          	jalr	-508(ra) # 80202198 <sched>
  release(&p->lock);
    8020239c:	8526                	mv	a0,s1
    8020239e:	ffffe097          	auipc	ra,0xffffe
    802023a2:	38e080e7          	jalr	910(ra) # 8020072c <release>
}
    802023a6:	60e2                	ld	ra,24(sp)
    802023a8:	6442                	ld	s0,16(sp)
    802023aa:	64a2                	ld	s1,8(sp)
    802023ac:	6105                	addi	sp,sp,32
    802023ae:	8082                	ret

00000000802023b0 <sleep>:
{
    802023b0:	7179                	addi	sp,sp,-48
    802023b2:	f406                	sd	ra,40(sp)
    802023b4:	f022                	sd	s0,32(sp)
    802023b6:	ec26                	sd	s1,24(sp)
    802023b8:	e84a                	sd	s2,16(sp)
    802023ba:	e44e                	sd	s3,8(sp)
    802023bc:	1800                	addi	s0,sp,48
    802023be:	89aa                	mv	s3,a0
    802023c0:	892e                	mv	s2,a1
  struct proc *p = myproc();
    802023c2:	fffff097          	auipc	ra,0xfffff
    802023c6:	6fe080e7          	jalr	1790(ra) # 80201ac0 <myproc>
    802023ca:	84aa                	mv	s1,a0
  if(lk != &p->lock){  //DOC: sleeplock0
    802023cc:	05250663          	beq	a0,s2,80202418 <sleep+0x68>
    acquire(&p->lock);  //DOC: sleeplock1
    802023d0:	ffffe097          	auipc	ra,0xffffe
    802023d4:	308080e7          	jalr	776(ra) # 802006d8 <acquire>
    release(lk);
    802023d8:	854a                	mv	a0,s2
    802023da:	ffffe097          	auipc	ra,0xffffe
    802023de:	352080e7          	jalr	850(ra) # 8020072c <release>
  p->chan = chan;
    802023e2:	0334b423          	sd	s3,40(s1)
  p->state = SLEEPING;
    802023e6:	4785                	li	a5,1
    802023e8:	cc9c                	sw	a5,24(s1)
  sched();
    802023ea:	00000097          	auipc	ra,0x0
    802023ee:	dae080e7          	jalr	-594(ra) # 80202198 <sched>
  p->chan = 0;
    802023f2:	0204b423          	sd	zero,40(s1)
    release(&p->lock);
    802023f6:	8526                	mv	a0,s1
    802023f8:	ffffe097          	auipc	ra,0xffffe
    802023fc:	334080e7          	jalr	820(ra) # 8020072c <release>
    acquire(lk);
    80202400:	854a                	mv	a0,s2
    80202402:	ffffe097          	auipc	ra,0xffffe
    80202406:	2d6080e7          	jalr	726(ra) # 802006d8 <acquire>
}
    8020240a:	70a2                	ld	ra,40(sp)
    8020240c:	7402                	ld	s0,32(sp)
    8020240e:	64e2                	ld	s1,24(sp)
    80202410:	6942                	ld	s2,16(sp)
    80202412:	69a2                	ld	s3,8(sp)
    80202414:	6145                	addi	sp,sp,48
    80202416:	8082                	ret
  p->chan = chan;
    80202418:	03353423          	sd	s3,40(a0)
  p->state = SLEEPING;
    8020241c:	4785                	li	a5,1
    8020241e:	cd1c                	sw	a5,24(a0)
  sched();
    80202420:	00000097          	auipc	ra,0x0
    80202424:	d78080e7          	jalr	-648(ra) # 80202198 <sched>
  p->chan = 0;
    80202428:	0204b423          	sd	zero,40(s1)
  if(lk != &p->lock){
    8020242c:	bff9                	j	8020240a <sleep+0x5a>

000000008020242e <wait>:
{
    8020242e:	715d                	addi	sp,sp,-80
    80202430:	e486                	sd	ra,72(sp)
    80202432:	e0a2                	sd	s0,64(sp)
    80202434:	fc26                	sd	s1,56(sp)
    80202436:	f84a                	sd	s2,48(sp)
    80202438:	f44e                	sd	s3,40(sp)
    8020243a:	f052                	sd	s4,32(sp)
    8020243c:	ec56                	sd	s5,24(sp)
    8020243e:	e85a                	sd	s6,16(sp)
    80202440:	e45e                	sd	s7,8(sp)
    80202442:	e062                	sd	s8,0(sp)
    80202444:	0880                	addi	s0,sp,80
    80202446:	8baa                	mv	s7,a0
  struct proc *p = myproc();
    80202448:	fffff097          	auipc	ra,0xfffff
    8020244c:	678080e7          	jalr	1656(ra) # 80201ac0 <myproc>
    80202450:	892a                	mv	s2,a0
  acquire(&p->lock);
    80202452:	8c2a                	mv	s8,a0
    80202454:	ffffe097          	auipc	ra,0xffffe
    80202458:	284080e7          	jalr	644(ra) # 802006d8 <acquire>
    havekids = 0;
    8020245c:	4b01                	li	s6,0
        if(np->state == ZOMBIE){
    8020245e:	4a11                	li	s4,4
    for(np = proc; np < &proc[NPROC]; np++){
    80202460:	00016997          	auipc	s3,0x16
    80202464:	82098993          	addi	s3,s3,-2016 # 80217c80 <bcache>
        havekids = 1;
    80202468:	4a85                	li	s5,1
    havekids = 0;
    8020246a:	875a                	mv	a4,s6
    for(np = proc; np < &proc[NPROC]; np++){
    8020246c:	00011497          	auipc	s1,0x11
    80202470:	d1448493          	addi	s1,s1,-748 # 80213180 <proc>
    80202474:	a8b9                	j	802024d2 <wait+0xa4>
          pid = np->pid;
    80202476:	0384a983          	lw	s3,56(s1)
          if(addr != 0 && copyout2(addr, (char *)&np->xstate, sizeof(np->xstate)) < 0) {
    8020247a:	000b8c63          	beqz	s7,80202492 <wait+0x64>
    8020247e:	4611                	li	a2,4
    80202480:	03448593          	addi	a1,s1,52
    80202484:	855e                	mv	a0,s7
    80202486:	fffff097          	auipc	ra,0xfffff
    8020248a:	f3c080e7          	jalr	-196(ra) # 802013c2 <copyout2>
    8020248e:	02054263          	bltz	a0,802024b2 <wait+0x84>
          freeproc(np);
    80202492:	8526                	mv	a0,s1
    80202494:	00000097          	auipc	ra,0x0
    80202498:	800080e7          	jalr	-2048(ra) # 80201c94 <freeproc>
          release(&np->lock);
    8020249c:	8526                	mv	a0,s1
    8020249e:	ffffe097          	auipc	ra,0xffffe
    802024a2:	28e080e7          	jalr	654(ra) # 8020072c <release>
          release(&p->lock);
    802024a6:	854a                	mv	a0,s2
    802024a8:	ffffe097          	auipc	ra,0xffffe
    802024ac:	284080e7          	jalr	644(ra) # 8020072c <release>
          return pid;
    802024b0:	a8a9                	j	8020250a <wait+0xdc>
            release(&np->lock);
    802024b2:	8526                	mv	a0,s1
    802024b4:	ffffe097          	auipc	ra,0xffffe
    802024b8:	278080e7          	jalr	632(ra) # 8020072c <release>
            release(&p->lock);
    802024bc:	854a                	mv	a0,s2
    802024be:	ffffe097          	auipc	ra,0xffffe
    802024c2:	26e080e7          	jalr	622(ra) # 8020072c <release>
            return -1;
    802024c6:	59fd                	li	s3,-1
    802024c8:	a089                	j	8020250a <wait+0xdc>
    for(np = proc; np < &proc[NPROC]; np++){
    802024ca:	18048493          	addi	s1,s1,384
    802024ce:	03348463          	beq	s1,s3,802024f6 <wait+0xc8>
      if(np->parent == p){
    802024d2:	709c                	ld	a5,32(s1)
    802024d4:	ff279be3          	bne	a5,s2,802024ca <wait+0x9c>
        acquire(&np->lock);
    802024d8:	8526                	mv	a0,s1
    802024da:	ffffe097          	auipc	ra,0xffffe
    802024de:	1fe080e7          	jalr	510(ra) # 802006d8 <acquire>
        if(np->state == ZOMBIE){
    802024e2:	4c9c                	lw	a5,24(s1)
    802024e4:	f94789e3          	beq	a5,s4,80202476 <wait+0x48>
        release(&np->lock);
    802024e8:	8526                	mv	a0,s1
    802024ea:	ffffe097          	auipc	ra,0xffffe
    802024ee:	242080e7          	jalr	578(ra) # 8020072c <release>
        havekids = 1;
    802024f2:	8756                	mv	a4,s5
    802024f4:	bfd9                	j	802024ca <wait+0x9c>
    if(!havekids || p->killed){
    802024f6:	c701                	beqz	a4,802024fe <wait+0xd0>
    802024f8:	03092783          	lw	a5,48(s2)
    802024fc:	c785                	beqz	a5,80202524 <wait+0xf6>
      release(&p->lock);
    802024fe:	854a                	mv	a0,s2
    80202500:	ffffe097          	auipc	ra,0xffffe
    80202504:	22c080e7          	jalr	556(ra) # 8020072c <release>
      return -1;
    80202508:	59fd                	li	s3,-1
}
    8020250a:	854e                	mv	a0,s3
    8020250c:	60a6                	ld	ra,72(sp)
    8020250e:	6406                	ld	s0,64(sp)
    80202510:	74e2                	ld	s1,56(sp)
    80202512:	7942                	ld	s2,48(sp)
    80202514:	79a2                	ld	s3,40(sp)
    80202516:	7a02                	ld	s4,32(sp)
    80202518:	6ae2                	ld	s5,24(sp)
    8020251a:	6b42                	ld	s6,16(sp)
    8020251c:	6ba2                	ld	s7,8(sp)
    8020251e:	6c02                	ld	s8,0(sp)
    80202520:	6161                	addi	sp,sp,80
    80202522:	8082                	ret
    sleep(p, &p->lock);  //DOC: wait-sleep
    80202524:	85e2                	mv	a1,s8
    80202526:	854a                	mv	a0,s2
    80202528:	00000097          	auipc	ra,0x0
    8020252c:	e88080e7          	jalr	-376(ra) # 802023b0 <sleep>
    havekids = 0;
    80202530:	bf2d                	j	8020246a <wait+0x3c>

0000000080202532 <wakeup>:
{
    80202532:	7139                	addi	sp,sp,-64
    80202534:	fc06                	sd	ra,56(sp)
    80202536:	f822                	sd	s0,48(sp)
    80202538:	f426                	sd	s1,40(sp)
    8020253a:	f04a                	sd	s2,32(sp)
    8020253c:	ec4e                	sd	s3,24(sp)
    8020253e:	e852                	sd	s4,16(sp)
    80202540:	e456                	sd	s5,8(sp)
    80202542:	0080                	addi	s0,sp,64
    80202544:	8a2a                	mv	s4,a0
  for(p = proc; p < &proc[NPROC]; p++) {
    80202546:	00011497          	auipc	s1,0x11
    8020254a:	c3a48493          	addi	s1,s1,-966 # 80213180 <proc>
    if(p->state == SLEEPING && p->chan == chan) {
    8020254e:	4985                	li	s3,1
      p->state = RUNNABLE;
    80202550:	4a89                	li	s5,2
  for(p = proc; p < &proc[NPROC]; p++) {
    80202552:	00015917          	auipc	s2,0x15
    80202556:	72e90913          	addi	s2,s2,1838 # 80217c80 <bcache>
    8020255a:	a821                	j	80202572 <wakeup+0x40>
      p->state = RUNNABLE;
    8020255c:	0154ac23          	sw	s5,24(s1)
    release(&p->lock);
    80202560:	8526                	mv	a0,s1
    80202562:	ffffe097          	auipc	ra,0xffffe
    80202566:	1ca080e7          	jalr	458(ra) # 8020072c <release>
  for(p = proc; p < &proc[NPROC]; p++) {
    8020256a:	18048493          	addi	s1,s1,384
    8020256e:	01248e63          	beq	s1,s2,8020258a <wakeup+0x58>
    acquire(&p->lock);
    80202572:	8526                	mv	a0,s1
    80202574:	ffffe097          	auipc	ra,0xffffe
    80202578:	164080e7          	jalr	356(ra) # 802006d8 <acquire>
    if(p->state == SLEEPING && p->chan == chan) {
    8020257c:	4c9c                	lw	a5,24(s1)
    8020257e:	ff3791e3          	bne	a5,s3,80202560 <wakeup+0x2e>
    80202582:	749c                	ld	a5,40(s1)
    80202584:	fd479ee3          	bne	a5,s4,80202560 <wakeup+0x2e>
    80202588:	bfd1                	j	8020255c <wakeup+0x2a>
}
    8020258a:	70e2                	ld	ra,56(sp)
    8020258c:	7442                	ld	s0,48(sp)
    8020258e:	74a2                	ld	s1,40(sp)
    80202590:	7902                	ld	s2,32(sp)
    80202592:	69e2                	ld	s3,24(sp)
    80202594:	6a42                	ld	s4,16(sp)
    80202596:	6aa2                	ld	s5,8(sp)
    80202598:	6121                	addi	sp,sp,64
    8020259a:	8082                	ret

000000008020259c <kill>:
// Kill the process with the given pid.
// The victim won't exit until it tries to return
// to user space (see usertrap() in trap.c).
int
kill(int pid)
{
    8020259c:	7179                	addi	sp,sp,-48
    8020259e:	f406                	sd	ra,40(sp)
    802025a0:	f022                	sd	s0,32(sp)
    802025a2:	ec26                	sd	s1,24(sp)
    802025a4:	e84a                	sd	s2,16(sp)
    802025a6:	e44e                	sd	s3,8(sp)
    802025a8:	1800                	addi	s0,sp,48
    802025aa:	892a                	mv	s2,a0
  struct proc *p;

  for(p = proc; p < &proc[NPROC]; p++){
    802025ac:	00011497          	auipc	s1,0x11
    802025b0:	bd448493          	addi	s1,s1,-1068 # 80213180 <proc>
    802025b4:	00015997          	auipc	s3,0x15
    802025b8:	6cc98993          	addi	s3,s3,1740 # 80217c80 <bcache>
    acquire(&p->lock);
    802025bc:	8526                	mv	a0,s1
    802025be:	ffffe097          	auipc	ra,0xffffe
    802025c2:	11a080e7          	jalr	282(ra) # 802006d8 <acquire>
    if(p->pid == pid){
    802025c6:	5c9c                	lw	a5,56(s1)
    802025c8:	01278d63          	beq	a5,s2,802025e2 <kill+0x46>
        p->state = RUNNABLE;
      }
      release(&p->lock);
      return 0;
    }
    release(&p->lock);
    802025cc:	8526                	mv	a0,s1
    802025ce:	ffffe097          	auipc	ra,0xffffe
    802025d2:	15e080e7          	jalr	350(ra) # 8020072c <release>
  for(p = proc; p < &proc[NPROC]; p++){
    802025d6:	18048493          	addi	s1,s1,384
    802025da:	ff3491e3          	bne	s1,s3,802025bc <kill+0x20>
  }
  return -1;
    802025de:	557d                	li	a0,-1
    802025e0:	a829                	j	802025fa <kill+0x5e>
      p->killed = 1;
    802025e2:	4785                	li	a5,1
    802025e4:	d89c                	sw	a5,48(s1)
      if(p->state == SLEEPING){
    802025e6:	4c98                	lw	a4,24(s1)
    802025e8:	4785                	li	a5,1
    802025ea:	00f70f63          	beq	a4,a5,80202608 <kill+0x6c>
      release(&p->lock);
    802025ee:	8526                	mv	a0,s1
    802025f0:	ffffe097          	auipc	ra,0xffffe
    802025f4:	13c080e7          	jalr	316(ra) # 8020072c <release>
      return 0;
    802025f8:	4501                	li	a0,0
}
    802025fa:	70a2                	ld	ra,40(sp)
    802025fc:	7402                	ld	s0,32(sp)
    802025fe:	64e2                	ld	s1,24(sp)
    80202600:	6942                	ld	s2,16(sp)
    80202602:	69a2                	ld	s3,8(sp)
    80202604:	6145                	addi	sp,sp,48
    80202606:	8082                	ret
        p->state = RUNNABLE;
    80202608:	4789                	li	a5,2
    8020260a:	cc9c                	sw	a5,24(s1)
    8020260c:	b7cd                	j	802025ee <kill+0x52>

000000008020260e <either_copyout>:
// Copy to either a user address, or kernel address,
// depending on usr_dst.
// Returns 0 on success, -1 on error.
int
either_copyout(int user_dst, uint64 dst, void *src, uint64 len)
{
    8020260e:	1101                	addi	sp,sp,-32
    80202610:	ec06                	sd	ra,24(sp)
    80202612:	e822                	sd	s0,16(sp)
    80202614:	e426                	sd	s1,8(sp)
    80202616:	1000                	addi	s0,sp,32
    80202618:	84aa                	mv	s1,a0
    8020261a:	852e                	mv	a0,a1
    8020261c:	85b2                	mv	a1,a2
  // struct proc *p = myproc();
  if(user_dst){
    8020261e:	c899                	beqz	s1,80202634 <either_copyout+0x26>
    // return copyout(p->pagetable, dst, src, len);
    return copyout2(dst, src, len);
    80202620:	8636                	mv	a2,a3
    80202622:	fffff097          	auipc	ra,0xfffff
    80202626:	da0080e7          	jalr	-608(ra) # 802013c2 <copyout2>
  } else {
    memmove((char *)dst, src, len);
    return 0;
  }
}
    8020262a:	60e2                	ld	ra,24(sp)
    8020262c:	6442                	ld	s0,16(sp)
    8020262e:	64a2                	ld	s1,8(sp)
    80202630:	6105                	addi	sp,sp,32
    80202632:	8082                	ret
    memmove((char *)dst, src, len);
    80202634:	0006861b          	sext.w	a2,a3
    80202638:	ffffe097          	auipc	ra,0xffffe
    8020263c:	1a8080e7          	jalr	424(ra) # 802007e0 <memmove>
    return 0;
    80202640:	8526                	mv	a0,s1
    80202642:	b7e5                	j	8020262a <either_copyout+0x1c>

0000000080202644 <either_copyin>:
// Copy from either a user address, or kernel address,
// depending on usr_src.
// Returns 0 on success, -1 on error.
int
either_copyin(void *dst, int user_src, uint64 src, uint64 len)
{
    80202644:	1101                	addi	sp,sp,-32
    80202646:	ec06                	sd	ra,24(sp)
    80202648:	e822                	sd	s0,16(sp)
    8020264a:	e426                	sd	s1,8(sp)
    8020264c:	1000                	addi	s0,sp,32
    8020264e:	84ae                	mv	s1,a1
    80202650:	85b2                	mv	a1,a2
  // struct proc *p = myproc();
  if(user_src){
    80202652:	c899                	beqz	s1,80202668 <either_copyin+0x24>
    // return copyin(p->pagetable, dst, src, len);
    return copyin2(dst, src, len);
    80202654:	8636                	mv	a2,a3
    80202656:	fffff097          	auipc	ra,0xfffff
    8020265a:	e4c080e7          	jalr	-436(ra) # 802014a2 <copyin2>
  } else {
    memmove(dst, (char*)src, len);
    return 0;
  }
}
    8020265e:	60e2                	ld	ra,24(sp)
    80202660:	6442                	ld	s0,16(sp)
    80202662:	64a2                	ld	s1,8(sp)
    80202664:	6105                	addi	sp,sp,32
    80202666:	8082                	ret
    memmove(dst, (char*)src, len);
    80202668:	0006861b          	sext.w	a2,a3
    8020266c:	ffffe097          	auipc	ra,0xffffe
    80202670:	174080e7          	jalr	372(ra) # 802007e0 <memmove>
    return 0;
    80202674:	8526                	mv	a0,s1
    80202676:	b7e5                	j	8020265e <either_copyin+0x1a>

0000000080202678 <procdump>:
// Print a process listing to console.  For debugging.
// Runs when user types ^P on console.
// No lock to avoid wedging a stuck machine further.
void
procdump(void)
{
    80202678:	715d                	addi	sp,sp,-80
    8020267a:	e486                	sd	ra,72(sp)
    8020267c:	e0a2                	sd	s0,64(sp)
    8020267e:	fc26                	sd	s1,56(sp)
    80202680:	f84a                	sd	s2,48(sp)
    80202682:	f44e                	sd	s3,40(sp)
    80202684:	f052                	sd	s4,32(sp)
    80202686:	ec56                	sd	s5,24(sp)
    80202688:	e85a                	sd	s6,16(sp)
    8020268a:	e45e                	sd	s7,8(sp)
    8020268c:	0880                	addi	s0,sp,80
  [ZOMBIE]    "zombie"
  };
  struct proc *p;
  char *state;

  printf("\nPID\tSTATE\tNAME\tMEM\n");
    8020268e:	00007517          	auipc	a0,0x7
    80202692:	02a50513          	addi	a0,a0,42 # 802096b8 <etext+0x6b8>
    80202696:	ffffe097          	auipc	ra,0xffffe
    8020269a:	afa080e7          	jalr	-1286(ra) # 80200190 <printf>
  for(p = proc; p < &proc[NPROC]; p++){
    8020269e:	00011497          	auipc	s1,0x11
    802026a2:	c4248493          	addi	s1,s1,-958 # 802132e0 <proc+0x160>
    802026a6:	00015917          	auipc	s2,0x15
    802026aa:	73a90913          	addi	s2,s2,1850 # 80217de0 <bcache+0x160>
    if(p->state == UNUSED)
      continue;
    if(p->state >= 0 && p->state < NELEM(states) && states[p->state])
    802026ae:	4b11                	li	s6,4
      state = states[p->state];
    else
      state = "???";
    802026b0:	00007997          	auipc	s3,0x7
    802026b4:	00098993          	mv	s3,s3
    printf("%d\t%s\t%s\t%d", p->pid, state, p->name, p->sz);
    802026b8:	00007a97          	auipc	s5,0x7
    802026bc:	018a8a93          	addi	s5,s5,24 # 802096d0 <etext+0x6d0>
    printf("\n");
    802026c0:	00007a17          	auipc	s4,0x7
    802026c4:	a30a0a13          	addi	s4,s4,-1488 # 802090f0 <etext+0xf0>
    if(p->state >= 0 && p->state < NELEM(states) && states[p->state])
    802026c8:	00008b97          	auipc	s7,0x8
    802026cc:	978b8b93          	addi	s7,s7,-1672 # 8020a040 <states.1751>
    802026d0:	a025                	j	802026f8 <procdump+0x80>
    printf("%d\t%s\t%s\t%d", p->pid, state, p->name, p->sz);
    802026d2:	ee85b703          	ld	a4,-280(a1)
    802026d6:	86ae                	mv	a3,a1
    802026d8:	ed85a583          	lw	a1,-296(a1)
    802026dc:	8556                	mv	a0,s5
    802026de:	ffffe097          	auipc	ra,0xffffe
    802026e2:	ab2080e7          	jalr	-1358(ra) # 80200190 <printf>
    printf("\n");
    802026e6:	8552                	mv	a0,s4
    802026e8:	ffffe097          	auipc	ra,0xffffe
    802026ec:	aa8080e7          	jalr	-1368(ra) # 80200190 <printf>
  for(p = proc; p < &proc[NPROC]; p++){
    802026f0:	18048493          	addi	s1,s1,384
    802026f4:	03248163          	beq	s1,s2,80202716 <procdump+0x9e>
    if(p->state == UNUSED)
    802026f8:	85a6                	mv	a1,s1
    802026fa:	eb84a783          	lw	a5,-328(s1)
    802026fe:	dbed                	beqz	a5,802026f0 <procdump+0x78>
      state = "???";
    80202700:	864e                	mv	a2,s3
    if(p->state >= 0 && p->state < NELEM(states) && states[p->state])
    80202702:	fcfb68e3          	bltu	s6,a5,802026d2 <procdump+0x5a>
    80202706:	1782                	slli	a5,a5,0x20
    80202708:	9381                	srli	a5,a5,0x20
    8020270a:	078e                	slli	a5,a5,0x3
    8020270c:	97de                	add	a5,a5,s7
    8020270e:	6390                	ld	a2,0(a5)
    80202710:	f269                	bnez	a2,802026d2 <procdump+0x5a>
      state = "???";
    80202712:	864e                	mv	a2,s3
    80202714:	bf7d                	j	802026d2 <procdump+0x5a>
  }
}
    80202716:	60a6                	ld	ra,72(sp)
    80202718:	6406                	ld	s0,64(sp)
    8020271a:	74e2                	ld	s1,56(sp)
    8020271c:	7942                	ld	s2,48(sp)
    8020271e:	79a2                	ld	s3,40(sp)
    80202720:	7a02                	ld	s4,32(sp)
    80202722:	6ae2                	ld	s5,24(sp)
    80202724:	6b42                	ld	s6,16(sp)
    80202726:	6ba2                	ld	s7,8(sp)
    80202728:	6161                	addi	sp,sp,80
    8020272a:	8082                	ret

000000008020272c <procnum>:

uint64
procnum(void)
{
    8020272c:	1141                	addi	sp,sp,-16
    8020272e:	e422                	sd	s0,8(sp)
    80202730:	0800                	addi	s0,sp,16
  int num = 0;
  struct proc *p;

  for (p = proc; p < &proc[NPROC]; p++) {
    80202732:	00011797          	auipc	a5,0x11
    80202736:	a4e78793          	addi	a5,a5,-1458 # 80213180 <proc>
  int num = 0;
    8020273a:	4501                	li	a0,0
  for (p = proc; p < &proc[NPROC]; p++) {
    8020273c:	00015697          	auipc	a3,0x15
    80202740:	54468693          	addi	a3,a3,1348 # 80217c80 <bcache>
    80202744:	a029                	j	8020274e <procnum+0x22>
    80202746:	18078793          	addi	a5,a5,384
    8020274a:	00d78663          	beq	a5,a3,80202756 <procnum+0x2a>
    if (p->state != UNUSED) {
    8020274e:	4f98                	lw	a4,24(a5)
    80202750:	db7d                	beqz	a4,80202746 <procnum+0x1a>
      num++;
    80202752:	2505                	addiw	a0,a0,1
    80202754:	bfcd                	j	80202746 <procnum+0x1a>
    }
  }

  return num;
}
    80202756:	6422                	ld	s0,8(sp)
    80202758:	0141                	addi	sp,sp,16
    8020275a:	8082                	ret

000000008020275c <swtch>:
    8020275c:	00153023          	sd	ra,0(a0)
    80202760:	00253423          	sd	sp,8(a0)
    80202764:	e900                	sd	s0,16(a0)
    80202766:	ed04                	sd	s1,24(a0)
    80202768:	03253023          	sd	s2,32(a0)
    8020276c:	03353423          	sd	s3,40(a0)
    80202770:	03453823          	sd	s4,48(a0)
    80202774:	03553c23          	sd	s5,56(a0)
    80202778:	05653023          	sd	s6,64(a0)
    8020277c:	05753423          	sd	s7,72(a0)
    80202780:	05853823          	sd	s8,80(a0)
    80202784:	05953c23          	sd	s9,88(a0)
    80202788:	07a53023          	sd	s10,96(a0)
    8020278c:	07b53423          	sd	s11,104(a0)
    80202790:	0005b083          	ld	ra,0(a1)
    80202794:	0085b103          	ld	sp,8(a1)
    80202798:	6980                	ld	s0,16(a1)
    8020279a:	6d84                	ld	s1,24(a1)
    8020279c:	0205b903          	ld	s2,32(a1)
    802027a0:	0285b983          	ld	s3,40(a1)
    802027a4:	0305ba03          	ld	s4,48(a1)
    802027a8:	0385ba83          	ld	s5,56(a1)
    802027ac:	0405bb03          	ld	s6,64(a1)
    802027b0:	0485bb83          	ld	s7,72(a1)
    802027b4:	0505bc03          	ld	s8,80(a1)
    802027b8:	0585bc83          	ld	s9,88(a1)
    802027bc:	0605bd03          	ld	s10,96(a1)
    802027c0:	0685bd83          	ld	s11,104(a1)
    802027c4:	8082                	ret

00000000802027c6 <trapinithart>:
// }

// set up to take exceptions and traps while in the kernel.
void
trapinithart(void)
{
    802027c6:	1141                	addi	sp,sp,-16
    802027c8:	e406                	sd	ra,8(sp)
    802027ca:	e022                	sd	s0,0(sp)
    802027cc:	0800                	addi	s0,sp,16
  asm volatile("csrw stvec, %0" : : "r" (x));
    802027ce:	00008797          	auipc	a5,0x8
    802027d2:	a827b783          	ld	a5,-1406(a5) # 8020a250 <_GLOBAL_OFFSET_TABLE_+0x18>
    802027d6:	10579073          	csrw	stvec,a5
  asm volatile("csrr %0, sstatus" : "=r" (x) );
    802027da:	100027f3          	csrr	a5,sstatus
  w_stvec((uint64)kernelvec);
  w_sstatus(r_sstatus() | SSTATUS_SIE);
    802027de:	0027e793          	ori	a5,a5,2
  asm volatile("csrw sstatus, %0" : : "r" (x));
    802027e2:	10079073          	csrw	sstatus,a5
  asm volatile("csrr %0, sie" : "=r" (x) );
    802027e6:	104027f3          	csrr	a5,sie
  // enable supervisor-mode timer interrupts.
  w_sie(r_sie() | SIE_SEIE | SIE_SSIE | SIE_STIE);
    802027ea:	2227e793          	ori	a5,a5,546
  asm volatile("csrw sie, %0" : : "r" (x));
    802027ee:	10479073          	csrw	sie,a5
  set_next_timeout();
    802027f2:	00003097          	auipc	ra,0x3
    802027f6:	954080e7          	jalr	-1708(ra) # 80205146 <set_next_timeout>
  #ifdef DEBUG
  printf("trapinithart\n");
  #endif
}
    802027fa:	60a2                	ld	ra,8(sp)
    802027fc:	6402                	ld	s0,0(sp)
    802027fe:	0141                	addi	sp,sp,16
    80202800:	8082                	ret

0000000080202802 <usertrapret>:
//
// return to user space
//
void
usertrapret(void)
{
    80202802:	1141                	addi	sp,sp,-16
    80202804:	e406                	sd	ra,8(sp)
    80202806:	e022                	sd	s0,0(sp)
    80202808:	0800                	addi	s0,sp,16
  struct proc *p = myproc();
    8020280a:	fffff097          	auipc	ra,0xfffff
    8020280e:	2b6080e7          	jalr	694(ra) # 80201ac0 <myproc>
  asm volatile("csrr %0, sstatus" : "=r" (x) );
    80202812:	100027f3          	csrr	a5,sstatus
  w_sstatus(r_sstatus() & ~SSTATUS_SIE);
    80202816:	9bf5                	andi	a5,a5,-3
  asm volatile("csrw sstatus, %0" : : "r" (x));
    80202818:	10079073          	csrw	sstatus,a5
  // kerneltrap() to usertrap(), so turn off interrupts until
  // we're back in user space, where usertrap() is correct.
  intr_off();

  // send syscalls, interrupts, and exceptions to trampoline.S
  w_stvec(TRAMPOLINE + (uservec - trampoline));
    8020281c:	00008617          	auipc	a2,0x8
    80202820:	a2463603          	ld	a2,-1500(a2) # 8020a240 <_GLOBAL_OFFSET_TABLE_+0x8>
    80202824:	00008697          	auipc	a3,0x8
    80202828:	a4c6b683          	ld	a3,-1460(a3) # 8020a270 <_GLOBAL_OFFSET_TABLE_+0x38>
    8020282c:	8e91                	sub	a3,a3,a2
    8020282e:	040007b7          	lui	a5,0x4000
    80202832:	17fd                	addi	a5,a5,-1
    80202834:	07b2                	slli	a5,a5,0xc
    80202836:	96be                	add	a3,a3,a5
  asm volatile("csrw stvec, %0" : : "r" (x));
    80202838:	10569073          	csrw	stvec,a3

  // set up trapframe values that uservec will need when
  // the process next re-enters the kernel.
  p->trapframe->kernel_satp = r_satp();         // kernel page table
    8020283c:	7138                	ld	a4,96(a0)
  asm volatile("csrr %0, satp" : "=r" (x) );
    8020283e:	180026f3          	csrr	a3,satp
    80202842:	e314                	sd	a3,0(a4)
  p->trapframe->kernel_sp = p->kstack + PGSIZE; // process's kernel stack
    80202844:	7138                	ld	a4,96(a0)
    80202846:	6134                	ld	a3,64(a0)
    80202848:	6585                	lui	a1,0x1
    8020284a:	96ae                	add	a3,a3,a1
    8020284c:	e714                	sd	a3,8(a4)
  p->trapframe->kernel_trap = (uint64)usertrap;
    8020284e:	7138                	ld	a4,96(a0)
    80202850:	00000697          	auipc	a3,0x0
    80202854:	0f468693          	addi	a3,a3,244 # 80202944 <usertrap>
    80202858:	eb14                	sd	a3,16(a4)
  p->trapframe->kernel_hartid = r_tp();         // hartid for cpuid()
    8020285a:	7138                	ld	a4,96(a0)
  asm volatile("mv %0, tp" : "=r" (x) );
    8020285c:	8692                	mv	a3,tp
    8020285e:	f314                	sd	a3,32(a4)
  asm volatile("csrr %0, sstatus" : "=r" (x) );
    80202860:	100026f3          	csrr	a3,sstatus
  // set up the registers that trampoline.S's sret will use
  // to get to user space.
  
  // set S Previous Privilege mode to User.
  unsigned long x = r_sstatus();
  x &= ~SSTATUS_SPP; // clear SPP to 0 for user mode
    80202864:	eff6f693          	andi	a3,a3,-257
  x |= SSTATUS_SPIE; // enable interrupts in user mode
    80202868:	0206e693          	ori	a3,a3,32
  asm volatile("csrw sstatus, %0" : : "r" (x));
    8020286c:	10069073          	csrw	sstatus,a3
  w_sstatus(x);

  // set S Exception Program Counter to the saved user pc.
  w_sepc(p->trapframe->epc);
    80202870:	7138                	ld	a4,96(a0)
  asm volatile("csrw sepc, %0" : : "r" (x));
    80202872:	6f18                	ld	a4,24(a4)
    80202874:	14171073          	csrw	sepc,a4

  // tell trampoline.S the user page table to switch to.
  // printf("[usertrapret]p->pagetable: %p\n", p->pagetable);
  uint64 satp = MAKE_SATP(p->pagetable);
    80202878:	692c                	ld	a1,80(a0)
    8020287a:	81b1                	srli	a1,a1,0xc

  // jump to trampoline.S at the top of memory, which 
  // switches to the user page table, restores user registers,
  // and switches to user mode with sret.
  uint64 fn = TRAMPOLINE + (userret - trampoline);
    8020287c:	00008717          	auipc	a4,0x8
    80202880:	9cc73703          	ld	a4,-1588(a4) # 8020a248 <_GLOBAL_OFFSET_TABLE_+0x10>
    80202884:	8f11                	sub	a4,a4,a2
    80202886:	97ba                	add	a5,a5,a4
  ((void (*)(uint64,uint64))fn)(TRAPFRAME, satp);
    80202888:	577d                	li	a4,-1
    8020288a:	177e                	slli	a4,a4,0x3f
    8020288c:	8dd9                	or	a1,a1,a4
    8020288e:	02000537          	lui	a0,0x2000
    80202892:	157d                	addi	a0,a0,-1
    80202894:	0536                	slli	a0,a0,0xd
    80202896:	9782                	jalr	a5
}
    80202898:	60a2                	ld	ra,8(sp)
    8020289a:	6402                	ld	s0,0(sp)
    8020289c:	0141                	addi	sp,sp,16
    8020289e:	8082                	ret

00000000802028a0 <devintr>:
// Check if it's an external/software interrupt, 
// and handle it. 
// returns  2 if timer interrupt, 
//          1 if other device, 
//          0 if not recognized. 
int devintr(void) {
    802028a0:	1101                	addi	sp,sp,-32
    802028a2:	ec06                	sd	ra,24(sp)
    802028a4:	e822                	sd	s0,16(sp)
    802028a6:	e426                	sd	s1,8(sp)
    802028a8:	1000                	addi	s0,sp,32
  asm volatile("csrr %0, scause" : "=r" (x) );
    802028aa:	14202773          	csrr	a4,scause
	uint64 scause = r_scause();

	#ifdef QEMU 
	// handle external interrupt 
	if ((0x8000000000000000L & scause) && 9 == (scause & 0xff)) 
    802028ae:	00074d63          	bltz	a4,802028c8 <devintr+0x28>
		sbi_set_mie();
		#endif 

		return 1;
	}
	else if (0x8000000000000005L == scause) {
    802028b2:	57fd                	li	a5,-1
    802028b4:	17fe                	slli	a5,a5,0x3f
    802028b6:	0795                	addi	a5,a5,5
		timer_tick();
		return 2;
	}
	else { return 0;}
    802028b8:	4501                	li	a0,0
	else if (0x8000000000000005L == scause) {
    802028ba:	06f70f63          	beq	a4,a5,80202938 <devintr+0x98>
}
    802028be:	60e2                	ld	ra,24(sp)
    802028c0:	6442                	ld	s0,16(sp)
    802028c2:	64a2                	ld	s1,8(sp)
    802028c4:	6105                	addi	sp,sp,32
    802028c6:	8082                	ret
	if ((0x8000000000000000L & scause) && 9 == (scause & 0xff)) 
    802028c8:	0ff77793          	andi	a5,a4,255
    802028cc:	46a5                	li	a3,9
    802028ce:	fed792e3          	bne	a5,a3,802028b2 <devintr+0x12>
		int irq = plic_claim();
    802028d2:	00004097          	auipc	ra,0x4
    802028d6:	322080e7          	jalr	802(ra) # 80206bf4 <plic_claim>
    802028da:	84aa                	mv	s1,a0
		if (UART_IRQ == irq) {
    802028dc:	47a9                	li	a5,10
    802028de:	02f50163          	beq	a0,a5,80202900 <devintr+0x60>
		else if (DISK_IRQ == irq) {
    802028e2:	4785                	li	a5,1
    802028e4:	04f50563          	beq	a0,a5,8020292e <devintr+0x8e>
		return 1;
    802028e8:	4505                	li	a0,1
		else if (irq) {
    802028ea:	d8f1                	beqz	s1,802028be <devintr+0x1e>
			printf("unexpected interrupt irq = %d\n", irq);
    802028ec:	85a6                	mv	a1,s1
    802028ee:	00007517          	auipc	a0,0x7
    802028f2:	e1a50513          	addi	a0,a0,-486 # 80209708 <etext+0x708>
    802028f6:	ffffe097          	auipc	ra,0xffffe
    802028fa:	89a080e7          	jalr	-1894(ra) # 80200190 <printf>
    802028fe:	a821                	j	80202916 <devintr+0x76>
	return SBI_CALL_0(SBI_CONSOLE_GETCHAR);
    80202900:	4501                	li	a0,0
    80202902:	4581                	li	a1,0
    80202904:	4601                	li	a2,0
    80202906:	4681                	li	a3,0
    80202908:	4889                	li	a7,2
    8020290a:	00000073          	ecall
    8020290e:	2501                	sext.w	a0,a0
			if (-1 != c) {
    80202910:	57fd                	li	a5,-1
    80202912:	00f51963          	bne	a0,a5,80202924 <devintr+0x84>
		if (irq) { plic_complete(irq);}
    80202916:	8526                	mv	a0,s1
    80202918:	00004097          	auipc	ra,0x4
    8020291c:	306080e7          	jalr	774(ra) # 80206c1e <plic_complete>
		return 1;
    80202920:	4505                	li	a0,1
    80202922:	bf71                	j	802028be <devintr+0x1e>
				consoleintr(c);
    80202924:	00004097          	auipc	ra,0x4
    80202928:	516080e7          	jalr	1302(ra) # 80206e3a <consoleintr>
    8020292c:	b7ed                	j	80202916 <devintr+0x76>
			disk_intr();
    8020292e:	00003097          	auipc	ra,0x3
    80202932:	8ee080e7          	jalr	-1810(ra) # 8020521c <disk_intr>
    80202936:	b7c5                	j	80202916 <devintr+0x76>
		timer_tick();
    80202938:	00003097          	auipc	ra,0x3
    8020293c:	834080e7          	jalr	-1996(ra) # 8020516c <timer_tick>
		return 2;
    80202940:	4509                	li	a0,2
    80202942:	bfb5                	j	802028be <devintr+0x1e>

0000000080202944 <usertrap>:
{
    80202944:	1101                	addi	sp,sp,-32
    80202946:	ec06                	sd	ra,24(sp)
    80202948:	e822                	sd	s0,16(sp)
    8020294a:	e426                	sd	s1,8(sp)
    8020294c:	e04a                	sd	s2,0(sp)
    8020294e:	1000                	addi	s0,sp,32
  asm volatile("csrr %0, sstatus" : "=r" (x) );
    80202950:	100027f3          	csrr	a5,sstatus
  if((r_sstatus() & SSTATUS_SPP) != 0)
    80202954:	1007f793          	andi	a5,a5,256
    80202958:	e3ad                	bnez	a5,802029ba <usertrap+0x76>
  asm volatile("csrw stvec, %0" : : "r" (x));
    8020295a:	00008797          	auipc	a5,0x8
    8020295e:	8f67b783          	ld	a5,-1802(a5) # 8020a250 <_GLOBAL_OFFSET_TABLE_+0x18>
    80202962:	10579073          	csrw	stvec,a5
  struct proc *p = myproc();
    80202966:	fffff097          	auipc	ra,0xfffff
    8020296a:	15a080e7          	jalr	346(ra) # 80201ac0 <myproc>
    8020296e:	84aa                	mv	s1,a0
  p->trapframe->epc = r_sepc();
    80202970:	713c                	ld	a5,96(a0)
  asm volatile("csrr %0, sepc" : "=r" (x) );
    80202972:	14102773          	csrr	a4,sepc
    80202976:	ef98                	sd	a4,24(a5)
  asm volatile("csrr %0, scause" : "=r" (x) );
    80202978:	14202773          	csrr	a4,scause
  if(r_scause() == 8){
    8020297c:	47a1                	li	a5,8
    8020297e:	04f71c63          	bne	a4,a5,802029d6 <usertrap+0x92>
    if(p->killed)
    80202982:	591c                	lw	a5,48(a0)
    80202984:	e3b9                	bnez	a5,802029ca <usertrap+0x86>
    p->trapframe->epc += 4;
    80202986:	70b8                	ld	a4,96(s1)
    80202988:	6f1c                	ld	a5,24(a4)
    8020298a:	0791                	addi	a5,a5,4
    8020298c:	ef1c                	sd	a5,24(a4)
  asm volatile("csrr %0, sstatus" : "=r" (x) );
    8020298e:	100027f3          	csrr	a5,sstatus
  w_sstatus(r_sstatus() | SSTATUS_SIE);
    80202992:	0027e793          	ori	a5,a5,2
  asm volatile("csrw sstatus, %0" : : "r" (x));
    80202996:	10079073          	csrw	sstatus,a5
    syscall();
    8020299a:	00000097          	auipc	ra,0x0
    8020299e:	5da080e7          	jalr	1498(ra) # 80202f74 <syscall>
  if(p->killed)
    802029a2:	589c                	lw	a5,48(s1)
    802029a4:	ebd1                	bnez	a5,80202a38 <usertrap+0xf4>
  usertrapret();
    802029a6:	00000097          	auipc	ra,0x0
    802029aa:	e5c080e7          	jalr	-420(ra) # 80202802 <usertrapret>
}
    802029ae:	60e2                	ld	ra,24(sp)
    802029b0:	6442                	ld	s0,16(sp)
    802029b2:	64a2                	ld	s1,8(sp)
    802029b4:	6902                	ld	s2,0(sp)
    802029b6:	6105                	addi	sp,sp,32
    802029b8:	8082                	ret
    panic("usertrap: not from user mode");
    802029ba:	00007517          	auipc	a0,0x7
    802029be:	d6e50513          	addi	a0,a0,-658 # 80209728 <etext+0x728>
    802029c2:	ffffd097          	auipc	ra,0xffffd
    802029c6:	784080e7          	jalr	1924(ra) # 80200146 <panic>
      exit(-1);
    802029ca:	557d                	li	a0,-1
    802029cc:	00000097          	auipc	ra,0x0
    802029d0:	8a4080e7          	jalr	-1884(ra) # 80202270 <exit>
    802029d4:	bf4d                	j	80202986 <usertrap+0x42>
  else if((which_dev = devintr()) != 0){
    802029d6:	00000097          	auipc	ra,0x0
    802029da:	eca080e7          	jalr	-310(ra) # 802028a0 <devintr>
    802029de:	892a                	mv	s2,a0
    802029e0:	c501                	beqz	a0,802029e8 <usertrap+0xa4>
  if(p->killed)
    802029e2:	589c                	lw	a5,48(s1)
    802029e4:	c3b1                	beqz	a5,80202a28 <usertrap+0xe4>
    802029e6:	a825                	j	80202a1e <usertrap+0xda>
  asm volatile("csrr %0, scause" : "=r" (x) );
    802029e8:	142025f3          	csrr	a1,scause
    printf("\nusertrap(): unexpected scause %p pid=%d %s\n", r_scause(), p->pid, p->name);
    802029ec:	16048693          	addi	a3,s1,352
    802029f0:	5c90                	lw	a2,56(s1)
    802029f2:	00007517          	auipc	a0,0x7
    802029f6:	d5650513          	addi	a0,a0,-682 # 80209748 <etext+0x748>
    802029fa:	ffffd097          	auipc	ra,0xffffd
    802029fe:	796080e7          	jalr	1942(ra) # 80200190 <printf>
  asm volatile("csrr %0, sepc" : "=r" (x) );
    80202a02:	141025f3          	csrr	a1,sepc
  asm volatile("csrr %0, stval" : "=r" (x) );
    80202a06:	14302673          	csrr	a2,stval
    printf("            sepc=%p stval=%p\n", r_sepc(), r_stval());
    80202a0a:	00007517          	auipc	a0,0x7
    80202a0e:	d6e50513          	addi	a0,a0,-658 # 80209778 <etext+0x778>
    80202a12:	ffffd097          	auipc	ra,0xffffd
    80202a16:	77e080e7          	jalr	1918(ra) # 80200190 <printf>
    p->killed = 1;
    80202a1a:	4785                	li	a5,1
    80202a1c:	d89c                	sw	a5,48(s1)
    exit(-1);
    80202a1e:	557d                	li	a0,-1
    80202a20:	00000097          	auipc	ra,0x0
    80202a24:	850080e7          	jalr	-1968(ra) # 80202270 <exit>
  if(which_dev == 2)
    80202a28:	4789                	li	a5,2
    80202a2a:	f6f91ee3          	bne	s2,a5,802029a6 <usertrap+0x62>
    yield();
    80202a2e:	00000097          	auipc	ra,0x0
    80202a32:	946080e7          	jalr	-1722(ra) # 80202374 <yield>
    80202a36:	bf85                	j	802029a6 <usertrap+0x62>
  int which_dev = 0;
    80202a38:	4901                	li	s2,0
    80202a3a:	b7d5                	j	80202a1e <usertrap+0xda>

0000000080202a3c <kerneltrap>:
kerneltrap() {
    80202a3c:	7179                	addi	sp,sp,-48
    80202a3e:	f406                	sd	ra,40(sp)
    80202a40:	f022                	sd	s0,32(sp)
    80202a42:	ec26                	sd	s1,24(sp)
    80202a44:	e84a                	sd	s2,16(sp)
    80202a46:	e44e                	sd	s3,8(sp)
    80202a48:	1800                	addi	s0,sp,48
  asm volatile("csrr %0, sepc" : "=r" (x) );
    80202a4a:	14102973          	csrr	s2,sepc
  asm volatile("csrr %0, sstatus" : "=r" (x) );
    80202a4e:	100024f3          	csrr	s1,sstatus
  asm volatile("csrr %0, scause" : "=r" (x) );
    80202a52:	142029f3          	csrr	s3,scause
  if((sstatus & SSTATUS_SPP) == 0)
    80202a56:	1004f793          	andi	a5,s1,256
    80202a5a:	cb85                	beqz	a5,80202a8a <kerneltrap+0x4e>
  asm volatile("csrr %0, sstatus" : "=r" (x) );
    80202a5c:	100027f3          	csrr	a5,sstatus
  return (x & SSTATUS_SIE) != 0;
    80202a60:	8b89                	andi	a5,a5,2
  if(intr_get() != 0)
    80202a62:	ef85                	bnez	a5,80202a9a <kerneltrap+0x5e>
  if((which_dev = devintr()) == 0){
    80202a64:	00000097          	auipc	ra,0x0
    80202a68:	e3c080e7          	jalr	-452(ra) # 802028a0 <devintr>
    80202a6c:	cd1d                	beqz	a0,80202aaa <kerneltrap+0x6e>
  if(which_dev == 2 && myproc() != 0 && myproc()->state == RUNNING) {
    80202a6e:	4789                	li	a5,2
    80202a70:	08f50b63          	beq	a0,a5,80202b06 <kerneltrap+0xca>
  asm volatile("csrw sepc, %0" : : "r" (x));
    80202a74:	14191073          	csrw	sepc,s2
  asm volatile("csrw sstatus, %0" : : "r" (x));
    80202a78:	10049073          	csrw	sstatus,s1
}
    80202a7c:	70a2                	ld	ra,40(sp)
    80202a7e:	7402                	ld	s0,32(sp)
    80202a80:	64e2                	ld	s1,24(sp)
    80202a82:	6942                	ld	s2,16(sp)
    80202a84:	69a2                	ld	s3,8(sp)
    80202a86:	6145                	addi	sp,sp,48
    80202a88:	8082                	ret
    panic("kerneltrap: not from supervisor mode");
    80202a8a:	00007517          	auipc	a0,0x7
    80202a8e:	d0e50513          	addi	a0,a0,-754 # 80209798 <etext+0x798>
    80202a92:	ffffd097          	auipc	ra,0xffffd
    80202a96:	6b4080e7          	jalr	1716(ra) # 80200146 <panic>
    panic("kerneltrap: interrupts enabled");
    80202a9a:	00007517          	auipc	a0,0x7
    80202a9e:	d2650513          	addi	a0,a0,-730 # 802097c0 <etext+0x7c0>
    80202aa2:	ffffd097          	auipc	ra,0xffffd
    80202aa6:	6a4080e7          	jalr	1700(ra) # 80200146 <panic>
    printf("\nscause %p\n", scause);
    80202aaa:	85ce                	mv	a1,s3
    80202aac:	00007517          	auipc	a0,0x7
    80202ab0:	d3450513          	addi	a0,a0,-716 # 802097e0 <etext+0x7e0>
    80202ab4:	ffffd097          	auipc	ra,0xffffd
    80202ab8:	6dc080e7          	jalr	1756(ra) # 80200190 <printf>
  asm volatile("csrr %0, sepc" : "=r" (x) );
    80202abc:	141025f3          	csrr	a1,sepc
  asm volatile("csrr %0, stval" : "=r" (x) );
    80202ac0:	14302673          	csrr	a2,stval
  asm volatile("mv %0, tp" : "=r" (x) );
    80202ac4:	8692                	mv	a3,tp
    printf("sepc=%p stval=%p hart=%d\n", r_sepc(), r_stval(), r_tp());
    80202ac6:	00007517          	auipc	a0,0x7
    80202aca:	d2a50513          	addi	a0,a0,-726 # 802097f0 <etext+0x7f0>
    80202ace:	ffffd097          	auipc	ra,0xffffd
    80202ad2:	6c2080e7          	jalr	1730(ra) # 80200190 <printf>
    struct proc *p = myproc();
    80202ad6:	fffff097          	auipc	ra,0xfffff
    80202ada:	fea080e7          	jalr	-22(ra) # 80201ac0 <myproc>
    if (p != 0) {
    80202ade:	cd01                	beqz	a0,80202af6 <kerneltrap+0xba>
      printf("pid: %d, name: %s\n", p->pid, p->name);
    80202ae0:	16050613          	addi	a2,a0,352
    80202ae4:	5d0c                	lw	a1,56(a0)
    80202ae6:	00007517          	auipc	a0,0x7
    80202aea:	d2a50513          	addi	a0,a0,-726 # 80209810 <etext+0x810>
    80202aee:	ffffd097          	auipc	ra,0xffffd
    80202af2:	6a2080e7          	jalr	1698(ra) # 80200190 <printf>
    panic("kerneltrap");
    80202af6:	00007517          	auipc	a0,0x7
    80202afa:	d3250513          	addi	a0,a0,-718 # 80209828 <etext+0x828>
    80202afe:	ffffd097          	auipc	ra,0xffffd
    80202b02:	648080e7          	jalr	1608(ra) # 80200146 <panic>
  if(which_dev == 2 && myproc() != 0 && myproc()->state == RUNNING) {
    80202b06:	fffff097          	auipc	ra,0xfffff
    80202b0a:	fba080e7          	jalr	-70(ra) # 80201ac0 <myproc>
    80202b0e:	d13d                	beqz	a0,80202a74 <kerneltrap+0x38>
    80202b10:	fffff097          	auipc	ra,0xfffff
    80202b14:	fb0080e7          	jalr	-80(ra) # 80201ac0 <myproc>
    80202b18:	4d18                	lw	a4,24(a0)
    80202b1a:	478d                	li	a5,3
    80202b1c:	f4f71ce3          	bne	a4,a5,80202a74 <kerneltrap+0x38>
    yield();
    80202b20:	00000097          	auipc	ra,0x0
    80202b24:	854080e7          	jalr	-1964(ra) # 80202374 <yield>
    80202b28:	b7b1                	j	80202a74 <kerneltrap+0x38>

0000000080202b2a <trapframedump>:

void trapframedump(struct trapframe *tf)
{
    80202b2a:	1101                	addi	sp,sp,-32
    80202b2c:	ec06                	sd	ra,24(sp)
    80202b2e:	e822                	sd	s0,16(sp)
    80202b30:	e426                	sd	s1,8(sp)
    80202b32:	1000                	addi	s0,sp,32
    80202b34:	84aa                	mv	s1,a0
  printf("a0: %p\t", tf->a0);
    80202b36:	792c                	ld	a1,112(a0)
    80202b38:	00007517          	auipc	a0,0x7
    80202b3c:	d0050513          	addi	a0,a0,-768 # 80209838 <etext+0x838>
    80202b40:	ffffd097          	auipc	ra,0xffffd
    80202b44:	650080e7          	jalr	1616(ra) # 80200190 <printf>
  printf("a1: %p\t", tf->a1);
    80202b48:	7cac                	ld	a1,120(s1)
    80202b4a:	00007517          	auipc	a0,0x7
    80202b4e:	cf650513          	addi	a0,a0,-778 # 80209840 <etext+0x840>
    80202b52:	ffffd097          	auipc	ra,0xffffd
    80202b56:	63e080e7          	jalr	1598(ra) # 80200190 <printf>
  printf("a2: %p\t", tf->a2);
    80202b5a:	60cc                	ld	a1,128(s1)
    80202b5c:	00007517          	auipc	a0,0x7
    80202b60:	cec50513          	addi	a0,a0,-788 # 80209848 <etext+0x848>
    80202b64:	ffffd097          	auipc	ra,0xffffd
    80202b68:	62c080e7          	jalr	1580(ra) # 80200190 <printf>
  printf("a3: %p\n", tf->a3);
    80202b6c:	64cc                	ld	a1,136(s1)
    80202b6e:	00007517          	auipc	a0,0x7
    80202b72:	ce250513          	addi	a0,a0,-798 # 80209850 <etext+0x850>
    80202b76:	ffffd097          	auipc	ra,0xffffd
    80202b7a:	61a080e7          	jalr	1562(ra) # 80200190 <printf>
  printf("a4: %p\t", tf->a4);
    80202b7e:	68cc                	ld	a1,144(s1)
    80202b80:	00007517          	auipc	a0,0x7
    80202b84:	cd850513          	addi	a0,a0,-808 # 80209858 <etext+0x858>
    80202b88:	ffffd097          	auipc	ra,0xffffd
    80202b8c:	608080e7          	jalr	1544(ra) # 80200190 <printf>
  printf("a5: %p\t", tf->a5);
    80202b90:	6ccc                	ld	a1,152(s1)
    80202b92:	00007517          	auipc	a0,0x7
    80202b96:	cce50513          	addi	a0,a0,-818 # 80209860 <etext+0x860>
    80202b9a:	ffffd097          	auipc	ra,0xffffd
    80202b9e:	5f6080e7          	jalr	1526(ra) # 80200190 <printf>
  printf("a6: %p\t", tf->a6);
    80202ba2:	70cc                	ld	a1,160(s1)
    80202ba4:	00007517          	auipc	a0,0x7
    80202ba8:	cc450513          	addi	a0,a0,-828 # 80209868 <etext+0x868>
    80202bac:	ffffd097          	auipc	ra,0xffffd
    80202bb0:	5e4080e7          	jalr	1508(ra) # 80200190 <printf>
  printf("a7: %p\n", tf->a7);
    80202bb4:	74cc                	ld	a1,168(s1)
    80202bb6:	00007517          	auipc	a0,0x7
